
Testen mit USVData.elf:     file format elf32-avr

Sections:
Idx Name          Size      VMA       LMA       File off  Algn
  0 .data         000003bc  00802800  0000243d  00002511  2**0
                  CONTENTS, ALLOC, LOAD, DATA
  1 .text         000023d4  00000000  00000000  000000d4  2**1
                  CONTENTS, ALLOC, LOAD, READONLY, CODE
  2 .rodata       00000069  000063d4  000023d4  000024a8  2**0
                  CONTENTS, ALLOC, LOAD, READONLY, DATA
  3 .bss          00000051  00802bbc  00802bbc  000028cd  2**0
                  ALLOC
  4 .eeprom       00000020  00810000  00810000  000028cd  2**0
                  CONTENTS, ALLOC, LOAD, READONLY, DATA
  5 .comment      00000030  00000000  00000000  000028ed  2**0
                  CONTENTS, READONLY
  6 .note.gnu.avr.deviceinfo 00000040  00000000  00000000  00002920  2**2
                  CONTENTS, READONLY
  7 .debug_aranges 00000240  00000000  00000000  00002960  2**3
                  CONTENTS, READONLY, DEBUGGING
  8 .debug_info   000079a8  00000000  00000000  00002ba0  2**0
                  CONTENTS, READONLY, DEBUGGING
  9 .debug_abbrev 0000320d  00000000  00000000  0000a548  2**0
                  CONTENTS, READONLY, DEBUGGING
 10 .debug_line   000022ba  00000000  00000000  0000d755  2**0
                  CONTENTS, READONLY, DEBUGGING
 11 .debug_frame  000009ac  00000000  00000000  0000fa10  2**2
                  CONTENTS, READONLY, DEBUGGING
 12 .debug_str    00002911  00000000  00000000  000103bc  2**0
                  CONTENTS, READONLY, DEBUGGING
 13 .debug_loc    000041fb  00000000  00000000  00012ccd  2**0
                  CONTENTS, READONLY, DEBUGGING
 14 .debug_ranges 00000488  00000000  00000000  00016ec8  2**0
                  CONTENTS, READONLY, DEBUGGING

Disassembly of section .text:

00000000 <__vectors>:
       0:	0c 94 87 00 	jmp	0x10e	; 0x10e <__ctors_end>
       4:	0c 94 a4 00 	jmp	0x148	; 0x148 <__bad_interrupt>
       8:	0c 94 a4 00 	jmp	0x148	; 0x148 <__bad_interrupt>
       c:	0c 94 a4 00 	jmp	0x148	; 0x148 <__bad_interrupt>
      10:	0c 94 a4 00 	jmp	0x148	; 0x148 <__bad_interrupt>
      14:	0c 94 a4 00 	jmp	0x148	; 0x148 <__bad_interrupt>
      18:	0c 94 a4 00 	jmp	0x148	; 0x148 <__bad_interrupt>
      1c:	0c 94 e8 09 	jmp	0x13d0	; 0x13d0 <__vector_7>
      20:	0c 94 a4 00 	jmp	0x148	; 0x148 <__bad_interrupt>
      24:	0c 94 a4 00 	jmp	0x148	; 0x148 <__bad_interrupt>
      28:	0c 94 a4 00 	jmp	0x148	; 0x148 <__bad_interrupt>
      2c:	0c 94 a4 00 	jmp	0x148	; 0x148 <__bad_interrupt>
      30:	0c 94 a4 00 	jmp	0x148	; 0x148 <__bad_interrupt>
      34:	0c 94 a4 00 	jmp	0x148	; 0x148 <__bad_interrupt>
      38:	0c 94 a4 00 	jmp	0x148	; 0x148 <__bad_interrupt>
      3c:	0c 94 a4 00 	jmp	0x148	; 0x148 <__bad_interrupt>
      40:	0c 94 a4 00 	jmp	0x148	; 0x148 <__bad_interrupt>
      44:	0c 94 46 02 	jmp	0x48c	; 0x48c <__vector_17>
      48:	0c 94 a4 00 	jmp	0x148	; 0x148 <__bad_interrupt>
      4c:	0c 94 bc 02 	jmp	0x578	; 0x578 <__vector_19>
      50:	0c 94 a4 00 	jmp	0x148	; 0x148 <__bad_interrupt>
      54:	0c 94 a4 00 	jmp	0x148	; 0x148 <__bad_interrupt>
      58:	0c 94 a4 00 	jmp	0x148	; 0x148 <__bad_interrupt>
      5c:	0c 94 a4 00 	jmp	0x148	; 0x148 <__bad_interrupt>
      60:	0c 94 a4 00 	jmp	0x148	; 0x148 <__bad_interrupt>
      64:	0c 94 a4 00 	jmp	0x148	; 0x148 <__bad_interrupt>
      68:	0c 94 51 03 	jmp	0x6a2	; 0x6a2 <__vector_26>
      6c:	0c 94 a4 00 	jmp	0x148	; 0x148 <__bad_interrupt>
      70:	0c 94 c7 03 	jmp	0x78e	; 0x78e <__vector_28>
      74:	0c 94 a4 00 	jmp	0x148	; 0x148 <__bad_interrupt>
      78:	0c 94 a4 00 	jmp	0x148	; 0x148 <__bad_interrupt>
      7c:	0c 94 5c 04 	jmp	0x8b8	; 0x8b8 <__vector_31>
      80:	0c 94 a4 00 	jmp	0x148	; 0x148 <__bad_interrupt>
      84:	0c 94 d2 04 	jmp	0x9a4	; 0x9a4 <__vector_33>
      88:	0c 94 a4 00 	jmp	0x148	; 0x148 <__bad_interrupt>
      8c:	0c 94 a4 00 	jmp	0x148	; 0x148 <__bad_interrupt>
      90:	43 01       	movw	r8, r6
      92:	2d 01       	movw	r4, r26
      94:	2f 01       	movw	r4, r30
      96:	2d 01       	movw	r4, r26
      98:	31 01       	movw	r6, r2
      9a:	2d 01       	movw	r4, r26
      9c:	33 01       	movw	r6, r6
      9e:	2d 01       	movw	r4, r26
      a0:	35 01       	movw	r6, r10
      a2:	2d 01       	movw	r4, r26
      a4:	37 01       	movw	r6, r14
      a6:	2d 01       	movw	r4, r26
      a8:	2d 01       	movw	r4, r26
      aa:	2d 01       	movw	r4, r26
      ac:	39 01       	movw	r6, r18
      ae:	2d 01       	movw	r4, r26
      b0:	2d 01       	movw	r4, r26
      b2:	2d 01       	movw	r4, r26
      b4:	2d 01       	movw	r4, r26
      b6:	2d 01       	movw	r4, r26
      b8:	2d 01       	movw	r4, r26
      ba:	2d 01       	movw	r4, r26
      bc:	3b 01       	movw	r6, r22
      be:	2d 01       	movw	r4, r26
      c0:	2d 01       	movw	r4, r26
      c2:	2d 01       	movw	r4, r26
      c4:	2d 01       	movw	r4, r26
      c6:	2d 01       	movw	r4, r26
      c8:	2d 01       	movw	r4, r26
      ca:	2d 01       	movw	r4, r26
      cc:	3d 01       	movw	r6, r26
      ce:	2d 01       	movw	r4, r26
      d0:	2d 01       	movw	r4, r26
      d2:	2d 01       	movw	r4, r26
      d4:	2d 01       	movw	r4, r26
      d6:	2d 01       	movw	r4, r26
      d8:	2d 01       	movw	r4, r26
      da:	2d 01       	movw	r4, r26
      dc:	2d 01       	movw	r4, r26
      de:	2d 01       	movw	r4, r26
      e0:	2d 01       	movw	r4, r26
      e2:	2d 01       	movw	r4, r26
      e4:	2d 01       	movw	r4, r26
      e6:	2d 01       	movw	r4, r26
      e8:	2d 01       	movw	r4, r26
      ea:	2d 01       	movw	r4, r26
      ec:	3f 01       	movw	r6, r30
      ee:	2d 01       	movw	r4, r26
      f0:	2d 01       	movw	r4, r26
      f2:	2d 01       	movw	r4, r26
      f4:	2d 01       	movw	r4, r26
      f6:	2d 01       	movw	r4, r26
      f8:	2d 01       	movw	r4, r26
      fa:	2d 01       	movw	r4, r26
      fc:	2d 01       	movw	r4, r26
      fe:	2d 01       	movw	r4, r26
     100:	2d 01       	movw	r4, r26
     102:	2d 01       	movw	r4, r26
     104:	2d 01       	movw	r4, r26
     106:	2d 01       	movw	r4, r26
     108:	2d 01       	movw	r4, r26
     10a:	2d 01       	movw	r4, r26
     10c:	41 01       	movw	r8, r2

0000010e <__ctors_end>:
     10e:	11 24       	eor	r1, r1
     110:	1f be       	out	0x3f, r1	; 63
     112:	cf ef       	ldi	r28, 0xFF	; 255
     114:	cd bf       	out	0x3d, r28	; 61
     116:	df e3       	ldi	r29, 0x3F	; 63
     118:	de bf       	out	0x3e, r29	; 62

0000011a <__do_copy_data>:
     11a:	1b e2       	ldi	r17, 0x2B	; 43
     11c:	a0 e0       	ldi	r26, 0x00	; 0
     11e:	b8 e2       	ldi	r27, 0x28	; 40
     120:	ed e3       	ldi	r30, 0x3D	; 61
     122:	f4 e2       	ldi	r31, 0x24	; 36
     124:	02 c0       	rjmp	.+4      	; 0x12a <__do_copy_data+0x10>
     126:	05 90       	lpm	r0, Z+
     128:	0d 92       	st	X+, r0
     12a:	ac 3b       	cpi	r26, 0xBC	; 188
     12c:	b1 07       	cpc	r27, r17
     12e:	d9 f7       	brne	.-10     	; 0x126 <__do_copy_data+0xc>

00000130 <__do_clear_bss>:
     130:	2c e2       	ldi	r18, 0x2C	; 44
     132:	ac eb       	ldi	r26, 0xBC	; 188
     134:	bb e2       	ldi	r27, 0x2B	; 43
     136:	01 c0       	rjmp	.+2      	; 0x13a <.do_clear_bss_start>

00000138 <.do_clear_bss_loop>:
     138:	1d 92       	st	X+, r1

0000013a <.do_clear_bss_start>:
     13a:	ad 30       	cpi	r26, 0x0D	; 13
     13c:	b2 07       	cpc	r27, r18
     13e:	e1 f7       	brne	.-8      	; 0x138 <.do_clear_bss_loop>
     140:	0e 94 68 08 	call	0x10d0	; 0x10d0 <main>
     144:	0c 94 e8 11 	jmp	0x23d0	; 0x23d0 <_exit>

00000148 <__bad_interrupt>:
     148:	0c 94 46 08 	jmp	0x108c	; 0x108c <__vector_default>

0000014c <FIFO_writebyte>:
 // bool FIFO_writebyte(sFIFO_t* FIFO, uint8_t byte) __attribute__((used))
 //	bool (R24) FIFO_writebyte(sFIFO_t* (R25,R24), uint8_t (R22))
 // {
 /////////////////////////////////////////////////////////////////////////////////////////
 FIFO_writebyte:
 MOVW r30, r24
     14c:	fc 01       	movw	r30, r24
 LDD  r24, z+_p_read
     14e:	80 81       	ld	r24, Z
 LDD  r25, z+_p_write
     150:	91 81       	ldd	r25, Z+1	; 0x01
 INC  r25
     152:	93 95       	inc	r25
 ANDI r25, _FIFO_bits
     154:	9f 71       	andi	r25, 0x1F	; 31
 CP   r24, r25
     156:	89 17       	cp	r24, r25
 LDI  r24, 0
     158:	80 e0       	ldi	r24, 0x00	; 0
 BREQ __FWB2_end
     15a:	41 f0       	breq	.+16     	; 0x16c <__FWB2_end>
 LDD  r24, z+_p_write
     15c:	81 81       	ldd	r24, Z+1	; 0x01
 MOVW r26, r30
     15e:	df 01       	movw	r26, r30
 ADD  r26, r24
     160:	a8 0f       	add	r26, r24
 ADC  r26, r1
     162:	a1 1d       	adc	r26, r1
 #if _p_data!=0
 ADIW r26, _p_data
     164:	13 96       	adiw	r26, 0x03	; 3
 #endif
 ST   x,   r22
     166:	6c 93       	st	X, r22
 STD  z+_p_write, r25
     168:	91 83       	std	Z+1, r25	; 0x01
 LDI  r24, 1
     16a:	81 e0       	ldi	r24, 0x01	; 1

0000016c <__FWB2_end>:
 __FWB2_end:
 ret
     16c:	08 95       	ret

0000016e <FIFO_readbyte>:
 // bool FIFO_readbyte(sFIFO_t* FIFO, uint8_t* byte) __attribute__((used))
 //	bool (R24) FIFO_readbyte(sFIFO_t* (R25,R24), uint8_t* (R23,R22))
 // {
 /////////////////////////////////////////////////////////////////////////////////////////
 FIFO_readbyte:
 MOVW  ZL, I1L
     16e:	fc 01       	movw	r30, r24
 LDD  r25, z+_p_read
     170:	90 81       	ld	r25, Z
 LDD  r24, z+_p_write
     172:	81 81       	ldd	r24, Z+1	; 0x01
 CP   r24, r25
     174:	89 17       	cp	r24, r25
 LDI  O1L, 0
     176:	80 e0       	ldi	r24, 0x00	; 0
 BREQ __FRB2_end
     178:	59 f0       	breq	.+22     	; 0x190 <__FRB2_end>
 MOVW  XL, ZL
     17a:	df 01       	movw	r26, r30
 ADD   XL, r25
     17c:	a9 0f       	add	r26, r25
 ADC   XH, _ZR
     17e:	b1 1d       	adc	r27, r1
 #if _p_data!=0
 ADIW  XL, _p_data
     180:	13 96       	adiw	r26, 0x03	; 3
 #endif
 LD   r24, x
     182:	8c 91       	ld	r24, X
 MOVW  XL, r22
     184:	db 01       	movw	r26, r22
 ST     x, r24
     186:	8c 93       	st	X, r24
 INC  r25
     188:	93 95       	inc	r25
 ANDI r25, _FIFO_bits
     18a:	9f 71       	andi	r25, 0x1F	; 31
 STD  z+_p_read, r25
     18c:	90 83       	st	Z, r25
 LDI  O1L, 1
     18e:	81 e0       	ldi	r24, 0x01	; 1

00000190 <__FRB2_end>:
 __FRB2_end:
 ret
     190:	08 95       	ret

00000192 <get_CPU_CLK>:
	
////////////////////////////////////////////////////////////////////////////////////////////////////
// Deklaration für lokale Funktionen
////////////////////////////////////////////////////////////////////////////////////////////////////
void get_CPU_CLK(void)
{
     192:	cf 93       	push	r28
     194:	df 93       	push	r29
     196:	cd b7       	in	r28, 0x3d	; 61
     198:	de b7       	in	r29, 0x3e	; 62
     19a:	6d 97       	sbiw	r28, 0x1d	; 29
     19c:	cd bf       	out	0x3d, r28	; 61
     19e:	de bf       	out	0x3e, r29	; 62
	uint8_t Prescaler_tab[] = CLK_Prescaler_Table;
     1a0:	8d e0       	ldi	r24, 0x0D	; 13
     1a2:	e4 ed       	ldi	r30, 0xD4	; 212
     1a4:	f3 e6       	ldi	r31, 0x63	; 99
     1a6:	de 01       	movw	r26, r28
     1a8:	11 96       	adiw	r26, 0x01	; 1
     1aa:	01 90       	ld	r0, Z+
     1ac:	0d 92       	st	X+, r0
     1ae:	8a 95       	dec	r24
     1b0:	e1 f7       	brne	.-8      	; 0x1aa <get_CPU_CLK+0x18>
	uint32_t Main_CLK_Switch_tab[] = Main_CLK_Switch_Table;
     1b2:	80 e1       	ldi	r24, 0x10	; 16
     1b4:	e1 ee       	ldi	r30, 0xE1	; 225
     1b6:	f3 e6       	ldi	r31, 0x63	; 99
     1b8:	de 01       	movw	r26, r28
     1ba:	1e 96       	adiw	r26, 0x0e	; 14
     1bc:	01 90       	ld	r0, Z+
     1be:	0d 92       	st	X+, r0
     1c0:	8a 95       	dec	r24
     1c2:	e1 f7       	brne	.-8      	; 0x1bc <get_CPU_CLK+0x2a>
	uint8_t Prescaler = 0;
	
	uint32_t Main_CLK_Switch = Main_CLK_Switch_tab[(CLKCTRL.MCLKCTRLA & CLKCTRL_CLKSEL_gm)];
     1c4:	a0 e6       	ldi	r26, 0x60	; 96
     1c6:	b0 e0       	ldi	r27, 0x00	; 0
     1c8:	ec 91       	ld	r30, X
     1ca:	e3 70       	andi	r30, 0x03	; 3
     1cc:	f0 e0       	ldi	r31, 0x00	; 0
     1ce:	ee 0f       	add	r30, r30
     1d0:	ff 1f       	adc	r31, r31
     1d2:	ee 0f       	add	r30, r30
     1d4:	ff 1f       	adc	r31, r31
     1d6:	21 e0       	ldi	r18, 0x01	; 1
     1d8:	30 e0       	ldi	r19, 0x00	; 0
     1da:	2c 0f       	add	r18, r28
     1dc:	3d 1f       	adc	r19, r29
     1de:	e2 0f       	add	r30, r18
     1e0:	f3 1f       	adc	r31, r19
     1e2:	65 85       	ldd	r22, Z+13	; 0x0d
     1e4:	76 85       	ldd	r23, Z+14	; 0x0e
     1e6:	87 85       	ldd	r24, Z+15	; 0x0f
     1e8:	90 89       	ldd	r25, Z+16	; 0x10
	
	
	if((CLKCTRL.MCLKCTRLB & CLKCTRL_PEN_bm) == CLKCTRL_PEN_bm)
     1ea:	11 96       	adiw	r26, 0x01	; 1
     1ec:	2c 91       	ld	r18, X
     1ee:	20 ff       	sbrs	r18, 0
     1f0:	1b c0       	rjmp	.+54     	; 0x228 <get_CPU_CLK+0x96>
	{
		Prescaler = Prescaler_tab[((CLKCTRL.MCLKCTRLB & CLKCTRL_PDIV_gm)>>1)];
     1f2:	e0 91 61 00 	lds	r30, 0x0061	; 0x800061 <__TEXT_REGION_LENGTH__+0x7f4061>
     1f6:	ee 71       	andi	r30, 0x1E	; 30
     1f8:	f0 e0       	ldi	r31, 0x00	; 0
     1fa:	f5 95       	asr	r31
     1fc:	e7 95       	ror	r30
     1fe:	21 e0       	ldi	r18, 0x01	; 1
     200:	30 e0       	ldi	r19, 0x00	; 0
     202:	2c 0f       	add	r18, r28
     204:	3d 1f       	adc	r19, r29
     206:	e2 0f       	add	r30, r18
     208:	f3 1f       	adc	r31, r19
     20a:	20 81       	ld	r18, Z
		CLK_CPU = Main_CLK_Switch/Prescaler;
     20c:	30 e0       	ldi	r19, 0x00	; 0
     20e:	40 e0       	ldi	r20, 0x00	; 0
     210:	50 e0       	ldi	r21, 0x00	; 0
     212:	0e 94 72 10 	call	0x20e4	; 0x20e4 <__udivmodsi4>
     216:	20 93 bc 2b 	sts	0x2BBC, r18	; 0x802bbc <__data_end>
     21a:	30 93 bd 2b 	sts	0x2BBD, r19	; 0x802bbd <__data_end+0x1>
     21e:	40 93 be 2b 	sts	0x2BBE, r20	; 0x802bbe <__data_end+0x2>
     222:	50 93 bf 2b 	sts	0x2BBF, r21	; 0x802bbf <__data_end+0x3>
     226:	08 c0       	rjmp	.+16     	; 0x238 <get_CPU_CLK+0xa6>
	}
	else
	{
		CLK_CPU = Main_CLK_Switch;
     228:	60 93 bc 2b 	sts	0x2BBC, r22	; 0x802bbc <__data_end>
     22c:	70 93 bd 2b 	sts	0x2BBD, r23	; 0x802bbd <__data_end+0x1>
     230:	80 93 be 2b 	sts	0x2BBE, r24	; 0x802bbe <__data_end+0x2>
     234:	90 93 bf 2b 	sts	0x2BBF, r25	; 0x802bbf <__data_end+0x3>
	}
}
     238:	6d 96       	adiw	r28, 0x1d	; 29
     23a:	cd bf       	out	0x3d, r28	; 61
     23c:	de bf       	out	0x3e, r29	; 62
     23e:	df 91       	pop	r29
     240:	cf 91       	pop	r28
     242:	08 95       	ret

00000244 <init_Core_CLK>:
////////////////////////////////////////////////////////////////////////////////////////////////////
void init_Core_CLK(uint8_t type, uint8_t prescaler)
{
	register uint8_t reg_val = 0;
	//Nur eine Art von Taktgeber darf gleichzeitig ausgewaehaelt werden
	switch (prescaler){
     244:	46 2f       	mov	r20, r22
     246:	50 e0       	ldi	r21, 0x00	; 0
     248:	fa 01       	movw	r30, r20
     24a:	32 97       	sbiw	r30, 0x02	; 2
     24c:	ef 33       	cpi	r30, 0x3F	; 63
     24e:	f1 05       	cpc	r31, r1
     250:	20 f4       	brcc	.+8      	; 0x25a <init_Core_CLK+0x16>
     252:	e8 5b       	subi	r30, 0xB8	; 184
     254:	ff 4f       	sbci	r31, 0xFF	; 255
     256:	0c 94 94 10 	jmp	0x2128	; 0x2128 <__tablejump2__>
	case 1:
		prescaler = ~CLKCTRL_PEN_bm;
     25a:	2e ef       	ldi	r18, 0xFE	; 254
     25c:	15 c0       	rjmp	.+42     	; 0x288 <init_Core_CLK+0x44>
		break;
	case 2:
		prescaler = (CLKCTRL_PEN_bm)|(CLKCTRL_PDIV_2X_gc);
		break;
	case 4:
		prescaler = (CLKCTRL_PEN_bm)|(CLKCTRL_PDIV_4X_gc);
     25e:	23 e0       	ldi	r18, 0x03	; 3
		break;
     260:	13 c0       	rjmp	.+38     	; 0x288 <init_Core_CLK+0x44>
	case 6:
		prescaler = (CLKCTRL_PEN_bm)|(CLKCTRL_PDIV_6X_gc);
     262:	21 e1       	ldi	r18, 0x11	; 17
		break;
     264:	11 c0       	rjmp	.+34     	; 0x288 <init_Core_CLK+0x44>
	case 8:
		prescaler = (CLKCTRL_PEN_bm)|(CLKCTRL_PDIV_8X_gc);
     266:	25 e0       	ldi	r18, 0x05	; 5
		break;
     268:	0f c0       	rjmp	.+30     	; 0x288 <init_Core_CLK+0x44>
	case 10:
		prescaler = (CLKCTRL_PEN_bm)|(CLKCTRL_PDIV_10X_gc);
     26a:	23 e1       	ldi	r18, 0x13	; 19
		break;
     26c:	0d c0       	rjmp	.+26     	; 0x288 <init_Core_CLK+0x44>
	case 12:
		prescaler = (CLKCTRL_PEN_bm)|(CLKCTRL_PDIV_12X_gc);
     26e:	25 e1       	ldi	r18, 0x15	; 21
		break;
     270:	0b c0       	rjmp	.+22     	; 0x288 <init_Core_CLK+0x44>
	case 16:
		prescaler = (CLKCTRL_PEN_bm)|(CLKCTRL_PDIV_16X_gc);
     272:	27 e0       	ldi	r18, 0x07	; 7
		break;
     274:	09 c0       	rjmp	.+18     	; 0x288 <init_Core_CLK+0x44>
	case 24:
		prescaler = (CLKCTRL_PEN_bm)|(CLKCTRL_PDIV_24X_gc);
     276:	27 e1       	ldi	r18, 0x17	; 23
		break;
     278:	07 c0       	rjmp	.+14     	; 0x288 <init_Core_CLK+0x44>
	case 32:
		prescaler = (CLKCTRL_PEN_bm)|(CLKCTRL_PDIV_32X_gc);
     27a:	29 e0       	ldi	r18, 0x09	; 9
		break;
     27c:	05 c0       	rjmp	.+10     	; 0x288 <init_Core_CLK+0x44>
	case 48:
		prescaler = (CLKCTRL_PEN_bm)|(CLKCTRL_PDIV_48X_gc);
     27e:	29 e1       	ldi	r18, 0x19	; 25
		break;
     280:	03 c0       	rjmp	.+6      	; 0x288 <init_Core_CLK+0x44>
	case 64:
		prescaler = (CLKCTRL_PEN_bm)|(CLKCTRL_PDIV_64X_gc);
     282:	2b e0       	ldi	r18, 0x0B	; 11
		break;
     284:	01 c0       	rjmp	.+2      	; 0x288 <init_Core_CLK+0x44>
	switch (prescaler){
	case 1:
		prescaler = ~CLKCTRL_PEN_bm;
		break;
	case 2:
		prescaler = (CLKCTRL_PEN_bm)|(CLKCTRL_PDIV_2X_gc);
     286:	21 e0       	ldi	r18, 0x01	; 1
		break;
	default:
		prescaler = ~CLKCTRL_PEN_bm;
		break;
	}
	switch(type){
     288:	88 23       	and	r24, r24
     28a:	19 f0       	breq	.+6      	; 0x292 <init_Core_CLK+0x4e>
     28c:	81 30       	cpi	r24, 0x01	; 1
     28e:	81 f0       	breq	.+32     	; 0x2b0 <init_Core_CLK+0x6c>
     290:	08 95       	ret
		case EXTCLK:
			// externen 32.768 kHz Crystal Oscillator auswählen für RTC
			reg_val = CLKCTRL.XOSC32KCTRLA;
     292:	e0 e6       	ldi	r30, 0x60	; 96
     294:	f0 e0       	ldi	r31, 0x00	; 0
     296:	84 8d       	ldd	r24, Z+28	; 0x1c
			reg_val = (reg_val & ~CLKCTRL_CSUT_gm) | CLKCTRL_CSUT_16K_gc;
     298:	8f 7c       	andi	r24, 0xCF	; 207
			reg_val |= CLKCTRL_RUNSTDBY_bm;
			reg_val |= CLKCTRL_ENABLE_bm;
     29a:	83 61       	ori	r24, 0x13	; 19
			CPU_CCP = CCP_IOREG_gc;
     29c:	98 ed       	ldi	r25, 0xD8	; 216
     29e:	94 bf       	out	0x34, r25	; 52
			CLKCTRL.XOSC32KCTRLA = reg_val;
     2a0:	84 8f       	std	Z+28, r24	; 0x1c
			get_CPU_CLK();
     2a2:	0e 94 c9 00 	call	0x192	; 0x192 <get_CPU_CLK>
			while((CLKCTRL.MCLKSTATUS & CLKCTRL_XOSC32KS_bm) != CLKCTRL_XOSC32KS_bm);
     2a6:	80 91 63 00 	lds	r24, 0x0063	; 0x800063 <__TEXT_REGION_LENGTH__+0x7f4063>
     2aa:	86 ff       	sbrs	r24, 6
     2ac:	fc cf       	rjmp	.-8      	; 0x2a6 <init_Core_CLK+0x62>
     2ae:	08 95       	ret
			break;
		case INTERN_CLK:
			//20MHz Internal oscillator
			reg_val = CLKCTRL.MCLKCTRLA;
     2b0:	e0 e6       	ldi	r30, 0x60	; 96
     2b2:	f0 e0       	ldi	r31, 0x00	; 0
     2b4:	90 81       	ld	r25, Z
			reg_val |= CLKCTRL_CLKSEL_OSC20M_gc;
			reg_val &= ~CLKCTRL_CLKOUT_bm;
     2b6:	9f 77       	andi	r25, 0x7F	; 127
			CCP=CCP_IOREG_gc;
     2b8:	88 ed       	ldi	r24, 0xD8	; 216
     2ba:	84 bf       	out	0x34, r24	; 52
			CLKCTRL.MCLKCTRLA = reg_val;
     2bc:	90 83       	st	Z, r25
			
			//Prescaler disable
			reg_val = prescaler;
			CCP=CCP_IOREG_gc;
     2be:	84 bf       	out	0x34, r24	; 52
			CLKCTRL.MCLKCTRLB = reg_val;
     2c0:	21 83       	std	Z+1, r18	; 0x01
			//unlock
			CCP=CCP_IOREG_gc;
     2c2:	84 bf       	out	0x34, r24	; 52
			CLKCTRL.MCLKLOCK &= ~CLKCTRL_LOCKEN_bm;
     2c4:	82 81       	ldd	r24, Z+2	; 0x02
     2c6:	8e 7f       	andi	r24, 0xFE	; 254
     2c8:	82 83       	std	Z+2, r24	; 0x02
			get_CPU_CLK();
     2ca:	0e 94 c9 00 	call	0x192	; 0x192 <get_CPU_CLK>
			while(CLKCTRL.MCLKSTATUS !=(CLKCTRL_OSC20MS_bm &(~CLKCTRL_EXTS_bm)&(~CLKCTRL_XOSC32KS_bm)&(~CLKCTRL_SOSC_bm)));
     2ce:	80 91 63 00 	lds	r24, 0x0063	; 0x800063 <__TEXT_REGION_LENGTH__+0x7f4063>
     2d2:	80 31       	cpi	r24, 0x10	; 16
     2d4:	e1 f7       	brne	.-8      	; 0x2ce <init_Core_CLK+0x8a>
     2d6:	08 95       	ret

000002d8 <__iCliRetVal>:
	if(FIFO != NULL)
	{
		FIFO->p_write = 0;
		FIFO->p_read = 0;
		//FIFO->p_bit_read = 0;
		__const8_init__ FIFO->FIFO_max = _FIFO_max_def;
     2d8:	f8 94       	cli
     2da:	81 e0       	ldi	r24, 0x01	; 1
     2dc:	08 95       	ret

000002de <__iRestore>:
     2de:	fc 01       	movw	r30, r24
     2e0:	80 81       	ld	r24, Z
     2e2:	8f bf       	out	0x3f, r24	; 63
     2e4:	08 95       	ret

000002e6 <FIFO_copy_to_lin>:
// 		return false;
// 	}
// }

uint8_t FIFO_copy_to_lin(uint8_t* lin_space, sFIFO_t* FIFO, uint8_t lenght)
{
     2e6:	af 92       	push	r10
     2e8:	bf 92       	push	r11
     2ea:	cf 92       	push	r12
     2ec:	df 92       	push	r13
     2ee:	ef 92       	push	r14
     2f0:	ff 92       	push	r15
     2f2:	0f 93       	push	r16
     2f4:	1f 93       	push	r17
     2f6:	cf 93       	push	r28
     2f8:	df 93       	push	r29
     2fa:	1f 92       	push	r1
     2fc:	cd b7       	in	r28, 0x3d	; 61
     2fe:	de b7       	in	r29, 0x3e	; 62
     300:	6c 01       	movw	r12, r24
     302:	7b 01       	movw	r14, r22
	/////////////////////////////////////////////////////////////////////////////////////////
	static inline __attribute__((always_inline)) uint8_t FIFO_diff_readdata(sFIFO_t* FIFO)
	{
		//return _modFIFO_max((FIFO->p_write + _FIFO_max_def ) - FIFO->p_read );
		uint8_t ret;
		__asm__ __volatile__(
     304:	fb 01       	movw	r30, r22
     306:	81 81       	ldd	r24, Z+1	; 0x01
     308:	80 5e       	subi	r24, 0xE0	; 224
     30a:	90 81       	ld	r25, Z
     30c:	89 1b       	sub	r24, r25
     30e:	8f 71       	andi	r24, 0x1F	; 31
	uint8_t copy_lenght, max_read_lenght;
	register uint8_t read_length_block;
	
	// lese aus dem Ringpuffer den Lesezeiger aus
	max_read_lenght = FIFO_diff_readdata(FIFO);
	copy_lenght = MIN(lenght, max_read_lenght);
     310:	14 2f       	mov	r17, r20
     312:	84 17       	cp	r24, r20
     314:	08 f4       	brcc	.+2      	; 0x318 <FIFO_copy_to_lin+0x32>
     316:	18 2f       	mov	r17, r24
	// Berechne die Länge für die zwei Kopieranweisungen
	read_length_block = MIN((copy_lenght),(FIFO->FIFO_max - FIFO->p_read));
     318:	f7 01       	movw	r30, r14
     31a:	22 81       	ldd	r18, Z+2	; 0x02
     31c:	30 81       	ld	r19, Z
     31e:	41 2f       	mov	r20, r17
     320:	50 e0       	ldi	r21, 0x00	; 0
     322:	82 2f       	mov	r24, r18
     324:	90 e0       	ldi	r25, 0x00	; 0
     326:	83 1b       	sub	r24, r19
     328:	91 09       	sbc	r25, r1
     32a:	48 17       	cp	r20, r24
     32c:	59 07       	cpc	r21, r25
     32e:	8c f0       	brlt	.+34     	; 0x352 <FIFO_copy_to_lin+0x6c>
     330:	80 81       	ld	r24, Z
     332:	02 2f       	mov	r16, r18
     334:	08 1b       	sub	r16, r24
	if (read_length_block != 0)
     336:	49 f5       	brne	.+82     	; 0x38a <FIFO_copy_to_lin+0xa4>
		{
			FIFO->p_read = _modFIFO_max(FIFO->p_read + copy_lenght);
		}
	}
	return copy_lenght;
}
     338:	81 2f       	mov	r24, r17
     33a:	0f 90       	pop	r0
     33c:	df 91       	pop	r29
     33e:	cf 91       	pop	r28
     340:	1f 91       	pop	r17
     342:	0f 91       	pop	r16
     344:	ff 90       	pop	r15
     346:	ef 90       	pop	r14
     348:	df 90       	pop	r13
     34a:	cf 90       	pop	r12
     34c:	bf 90       	pop	r11
     34e:	af 90       	pop	r10
     350:	08 95       	ret
	// lese aus dem Ringpuffer den Lesezeiger aus
	max_read_lenght = FIFO_diff_readdata(FIFO);
	copy_lenght = MIN(lenght, max_read_lenght);
	// Berechne die Länge für die zwei Kopieranweisungen
	read_length_block = MIN((copy_lenght),(FIFO->FIFO_max - FIFO->p_read));
	if (read_length_block != 0)
     352:	11 23       	and	r17, r17
     354:	89 f3       	breq	.-30     	; 0x338 <FIFO_copy_to_lin+0x52>
	{
		p_read_start = &(FIFO->dFIFO.data[FIFO->p_read]);
     356:	f7 01       	movw	r30, r14
     358:	60 81       	ld	r22, Z
		// lese aus dem Ringpuffer
		memcpy(lin_space, p_read_start, read_length_block);
     35a:	70 e0       	ldi	r23, 0x00	; 0
     35c:	6d 5f       	subi	r22, 0xFD	; 253
     35e:	7f 4f       	sbci	r23, 0xFF	; 255
     360:	6e 0d       	add	r22, r14
     362:	7f 1d       	adc	r23, r15
     364:	c6 01       	movw	r24, r12
     366:	0e 94 df 11 	call	0x23be	; 0x23be <memcpy>
		p_read_start = lin_space + read_length_block;
		read_length_block = copy_lenght - read_length_block;
		if(read_length_block != 0)
			memcpy(p_read_start, FIFO->dFIFO.data, read_length_block);
		// Lesezeiger anpassen
		ATOMIC_BLOCK(ATOMIC_RESTORESTATE)
     36a:	8f b7       	in	r24, 0x3f	; 63
     36c:	89 83       	std	Y+1, r24	; 0x01
     36e:	0e 94 6c 01 	call	0x2d8	; 0x2d8 <__iCliRetVal>
     372:	88 23       	and	r24, r24
     374:	29 f0       	breq	.+10     	; 0x380 <FIFO_copy_to_lin+0x9a>
		{
			FIFO->p_read = _modFIFO_max(FIFO->p_read + copy_lenght);
     376:	f7 01       	movw	r30, r14
     378:	80 81       	ld	r24, Z
     37a:	81 0f       	add	r24, r17
     37c:	8f 71       	andi	r24, 0x1F	; 31
     37e:	80 83       	st	Z, r24
		p_read_start = lin_space + read_length_block;
		read_length_block = copy_lenght - read_length_block;
		if(read_length_block != 0)
			memcpy(p_read_start, FIFO->dFIFO.data, read_length_block);
		// Lesezeiger anpassen
		ATOMIC_BLOCK(ATOMIC_RESTORESTATE)
     380:	ce 01       	movw	r24, r28
     382:	01 96       	adiw	r24, 0x01	; 1
     384:	0e 94 6f 01 	call	0x2de	; 0x2de <__iRestore>
     388:	d7 cf       	rjmp	.-82     	; 0x338 <FIFO_copy_to_lin+0x52>
	copy_lenght = MIN(lenght, max_read_lenght);
	// Berechne die Länge für die zwei Kopieranweisungen
	read_length_block = MIN((copy_lenght),(FIFO->FIFO_max - FIFO->p_read));
	if (read_length_block != 0)
	{
		p_read_start = &(FIFO->dFIFO.data[FIFO->p_read]);
     38a:	60 81       	ld	r22, Z
		// lese aus dem Ringpuffer
		memcpy(lin_space, p_read_start, read_length_block);
     38c:	a0 2e       	mov	r10, r16
     38e:	b1 2c       	mov	r11, r1
     390:	70 e0       	ldi	r23, 0x00	; 0
     392:	6d 5f       	subi	r22, 0xFD	; 253
     394:	7f 4f       	sbci	r23, 0xFF	; 255
     396:	6e 0d       	add	r22, r14
     398:	7f 1d       	adc	r23, r15
     39a:	a5 01       	movw	r20, r10
     39c:	c6 01       	movw	r24, r12
     39e:	0e 94 df 11 	call	0x23be	; 0x23be <memcpy>
		// Berechne die Länge für die zwei Kopieranweisungen
		p_read_start = lin_space + read_length_block;
		read_length_block = copy_lenght - read_length_block;
     3a2:	41 2f       	mov	r20, r17
     3a4:	40 1b       	sub	r20, r16
		if(read_length_block != 0)
     3a6:	09 f3       	breq	.-62     	; 0x36a <FIFO_copy_to_lin+0x84>
			memcpy(p_read_start, FIFO->dFIFO.data, read_length_block);
     3a8:	50 e0       	ldi	r21, 0x00	; 0
     3aa:	b7 01       	movw	r22, r14
     3ac:	6d 5f       	subi	r22, 0xFD	; 253
     3ae:	7f 4f       	sbci	r23, 0xFF	; 255
     3b0:	c6 01       	movw	r24, r12
     3b2:	8a 0d       	add	r24, r10
     3b4:	9b 1d       	adc	r25, r11
     3b6:	0e 94 df 11 	call	0x23be	; 0x23be <memcpy>
     3ba:	d7 cf       	rjmp	.-82     	; 0x36a <FIFO_copy_to_lin+0x84>

000003bc <FIFO_copy_from_lin>:
	}
	return copy_lenght;
}

uint8_t FIFO_copy_from_lin(sFIFO_t* FIFO, uint8_t* lin_space, uint8_t lenght)
{
     3bc:	af 92       	push	r10
     3be:	bf 92       	push	r11
     3c0:	cf 92       	push	r12
     3c2:	df 92       	push	r13
     3c4:	ef 92       	push	r14
     3c6:	ff 92       	push	r15
     3c8:	0f 93       	push	r16
     3ca:	1f 93       	push	r17
     3cc:	cf 93       	push	r28
     3ce:	df 93       	push	r29
     3d0:	1f 92       	push	r1
     3d2:	cd b7       	in	r28, 0x3d	; 61
     3d4:	de b7       	in	r29, 0x3e	; 62
     3d6:	7c 01       	movw	r14, r24
     3d8:	6b 01       	movw	r12, r22
	/////////////////////////////////////////////////////////////////////////////////////////
	static inline __attribute__((always_inline)) uint8_t FIFO_diff_writedata(sFIFO_t* FIFO)
	{
		//return _modFIFO_max((FIFO->p_read + (_FIFO_max_def-1))- FIFO->p_write );
		uint8_t ret;
		__asm__ __volatile__(
     3da:	fc 01       	movw	r30, r24
     3dc:	80 81       	ld	r24, Z
     3de:	81 5e       	subi	r24, 0xE1	; 225
     3e0:	91 81       	ldd	r25, Z+1	; 0x01
     3e2:	89 1b       	sub	r24, r25
     3e4:	8f 71       	andi	r24, 0x1F	; 31
	uint8_t copy_lenght, FIFO_length;
	register uint8_t write_lenght_block;
	
	// berechne die maximale Schreiblänge
	FIFO_length = FIFO_diff_writedata(FIFO);
	copy_lenght = MIN(lenght, FIFO_length);
     3e6:	14 2f       	mov	r17, r20
     3e8:	84 17       	cp	r24, r20
     3ea:	08 f4       	brcc	.+2      	; 0x3ee <FIFO_copy_from_lin+0x32>
     3ec:	18 2f       	mov	r17, r24
	// Berechne die Länge für die erste Kopieranweisungen
	write_lenght_block = MIN((copy_lenght),(FIFO->FIFO_max - FIFO->p_write));
     3ee:	f7 01       	movw	r30, r14
     3f0:	22 81       	ldd	r18, Z+2	; 0x02
     3f2:	31 81       	ldd	r19, Z+1	; 0x01
     3f4:	41 2f       	mov	r20, r17
     3f6:	50 e0       	ldi	r21, 0x00	; 0
     3f8:	82 2f       	mov	r24, r18
     3fa:	90 e0       	ldi	r25, 0x00	; 0
     3fc:	83 1b       	sub	r24, r19
     3fe:	91 09       	sbc	r25, r1
     400:	48 17       	cp	r20, r24
     402:	59 07       	cpc	r21, r25
     404:	8c f0       	brlt	.+34     	; 0x428 <__LOCK_REGION_LENGTH__+0x28>
     406:	81 81       	ldd	r24, Z+1	; 0x01
     408:	02 2f       	mov	r16, r18
     40a:	08 1b       	sub	r16, r24
	// schreibe in den Ringpuffer
	if(write_lenght_block != 0)
     40c:	41 f5       	brne	.+80     	; 0x45e <__LOCK_REGION_LENGTH__+0x5e>
		{
			FIFO->p_write = _modFIFO_max(FIFO->p_write+copy_lenght);
		}
	}
	return copy_lenght;
}
     40e:	81 2f       	mov	r24, r17
     410:	0f 90       	pop	r0
     412:	df 91       	pop	r29
     414:	cf 91       	pop	r28
     416:	1f 91       	pop	r17
     418:	0f 91       	pop	r16
     41a:	ff 90       	pop	r15
     41c:	ef 90       	pop	r14
     41e:	df 90       	pop	r13
     420:	cf 90       	pop	r12
     422:	bf 90       	pop	r11
     424:	af 90       	pop	r10
     426:	08 95       	ret
	FIFO_length = FIFO_diff_writedata(FIFO);
	copy_lenght = MIN(lenght, FIFO_length);
	// Berechne die Länge für die erste Kopieranweisungen
	write_lenght_block = MIN((copy_lenght),(FIFO->FIFO_max - FIFO->p_write));
	// schreibe in den Ringpuffer
	if(write_lenght_block != 0)
     428:	11 23       	and	r17, r17
     42a:	89 f3       	breq	.-30     	; 0x40e <__LOCK_REGION_LENGTH__+0xe>
	{
		// lese aus dem Ringpuffer den Schreibzeiger aus
		p_write_start = &(FIFO->dFIFO.data[FIFO->p_write]);
     42c:	f7 01       	movw	r30, r14
     42e:	81 81       	ldd	r24, Z+1	; 0x01
		memcpy(p_write_start, lin_space, write_lenght_block);
     430:	90 e0       	ldi	r25, 0x00	; 0
     432:	03 96       	adiw	r24, 0x03	; 3
     434:	b6 01       	movw	r22, r12
     436:	8e 0d       	add	r24, r14
     438:	9f 1d       	adc	r25, r15
     43a:	0e 94 df 11 	call	0x23be	; 0x23be <memcpy>
		p_write_start = lin_space + write_lenght_block;
		write_lenght_block = copy_lenght - write_lenght_block;
		if(write_lenght_block != 0)
			memcpy(FIFO->dFIFO.data, p_write_start, write_lenght_block);
		// Schreibzeiger anpassen
		ATOMIC_BLOCK(ATOMIC_RESTORESTATE)
     43e:	8f b7       	in	r24, 0x3f	; 63
     440:	89 83       	std	Y+1, r24	; 0x01
     442:	0e 94 6c 01 	call	0x2d8	; 0x2d8 <__iCliRetVal>
     446:	88 23       	and	r24, r24
     448:	29 f0       	breq	.+10     	; 0x454 <__LOCK_REGION_LENGTH__+0x54>
		{
			FIFO->p_write = _modFIFO_max(FIFO->p_write+copy_lenght);
     44a:	f7 01       	movw	r30, r14
     44c:	81 81       	ldd	r24, Z+1	; 0x01
     44e:	81 0f       	add	r24, r17
     450:	8f 71       	andi	r24, 0x1F	; 31
     452:	81 83       	std	Z+1, r24	; 0x01
		p_write_start = lin_space + write_lenght_block;
		write_lenght_block = copy_lenght - write_lenght_block;
		if(write_lenght_block != 0)
			memcpy(FIFO->dFIFO.data, p_write_start, write_lenght_block);
		// Schreibzeiger anpassen
		ATOMIC_BLOCK(ATOMIC_RESTORESTATE)
     454:	ce 01       	movw	r24, r28
     456:	01 96       	adiw	r24, 0x01	; 1
     458:	0e 94 6f 01 	call	0x2de	; 0x2de <__iRestore>
     45c:	d8 cf       	rjmp	.-80     	; 0x40e <__LOCK_REGION_LENGTH__+0xe>
	write_lenght_block = MIN((copy_lenght),(FIFO->FIFO_max - FIFO->p_write));
	// schreibe in den Ringpuffer
	if(write_lenght_block != 0)
	{
		// lese aus dem Ringpuffer den Schreibzeiger aus
		p_write_start = &(FIFO->dFIFO.data[FIFO->p_write]);
     45e:	81 81       	ldd	r24, Z+1	; 0x01
		memcpy(p_write_start, lin_space, write_lenght_block);
     460:	a0 2e       	mov	r10, r16
     462:	b1 2c       	mov	r11, r1
     464:	90 e0       	ldi	r25, 0x00	; 0
     466:	03 96       	adiw	r24, 0x03	; 3
     468:	a5 01       	movw	r20, r10
     46a:	b6 01       	movw	r22, r12
     46c:	8e 0d       	add	r24, r14
     46e:	9f 1d       	adc	r25, r15
     470:	0e 94 df 11 	call	0x23be	; 0x23be <memcpy>
		// Berechne die Länge für die zweite Kopieranweisungen
		p_write_start = lin_space + write_lenght_block;
		write_lenght_block = copy_lenght - write_lenght_block;
     474:	41 2f       	mov	r20, r17
     476:	40 1b       	sub	r20, r16
		if(write_lenght_block != 0)
     478:	11 f3       	breq	.-60     	; 0x43e <__LOCK_REGION_LENGTH__+0x3e>
			memcpy(FIFO->dFIFO.data, p_write_start, write_lenght_block);
     47a:	50 e0       	ldi	r21, 0x00	; 0
     47c:	b6 01       	movw	r22, r12
     47e:	6a 0d       	add	r22, r10
     480:	7b 1d       	adc	r23, r11
     482:	c7 01       	movw	r24, r14
     484:	03 96       	adiw	r24, 0x03	; 3
     486:	0e 94 df 11 	call	0x23be	; 0x23be <memcpy>
     48a:	d9 cf       	rjmp	.-78     	; 0x43e <__LOCK_REGION_LENGTH__+0x3e>

0000048c <__vector_17>:
		// lese die maximale Anzahl der Bytes im FIFO
		*length = MIN(max_length, FIFO_diff_readdata(&USART_RX_FIFO[USARTnumber]));
		if(*length != 0)
		{
			// Kopiere Daten vom FIFO in das Array
			FIFO_copy_to_lin(*data, &USART_RX_FIFO[USARTnumber], *length);
     48c:	1f 92       	push	r1
     48e:	0f 92       	push	r0
     490:	0f b6       	in	r0, 0x3f	; 63
     492:	0f 92       	push	r0
     494:	11 24       	eor	r1, r1
     496:	0f 93       	push	r16
     498:	1f 93       	push	r17
     49a:	2f 93       	push	r18
     49c:	3f 93       	push	r19
     49e:	4f 93       	push	r20
     4a0:	5f 93       	push	r21
     4a2:	6f 93       	push	r22
     4a4:	7f 93       	push	r23
     4a6:	8f 93       	push	r24
     4a8:	9f 93       	push	r25
     4aa:	af 93       	push	r26
     4ac:	bf 93       	push	r27
     4ae:	cf 93       	push	r28
     4b0:	df 93       	push	r29
     4b2:	ef 93       	push	r30
     4b4:	ff 93       	push	r31
     4b6:	80 91 06 08 	lds	r24, 0x0806	; 0x800806 <__TEXT_REGION_LENGTH__+0x7f4806>
     4ba:	80 fd       	sbrc	r24, 0
     4bc:	11 c0       	rjmp	.+34     	; 0x4e0 <__vector_17+0x54>
     4be:	80 91 04 08 	lds	r24, 0x0804	; 0x800804 <__TEXT_REGION_LENGTH__+0x7f4804>
     4c2:	87 ff       	sbrs	r24, 7
     4c4:	0d c0       	rjmp	.+26     	; 0x4e0 <__vector_17+0x54>
     4c6:	c6 e0       	ldi	r28, 0x06	; 6
     4c8:	d8 e2       	ldi	r29, 0x28	; 40
     4ca:	fe 01       	movw	r30, r28
     4cc:	80 81       	ld	r24, Z
     4ce:	91 81       	ldd	r25, Z+1	; 0x01
     4d0:	93 95       	inc	r25
     4d2:	9f 71       	andi	r25, 0x1F	; 31
     4d4:	98 17       	cp	r25, r24
     4d6:	80 e0       	ldi	r24, 0x00	; 0
     4d8:	09 f0       	breq	.+2      	; 0x4dc <__vector_17+0x50>
     4da:	81 e0       	ldi	r24, 0x01	; 1
     4dc:	81 11       	cpse	r24, r1
     4de:	1a c0       	rjmp	.+52     	; 0x514 <__vector_17+0x88>
     4e0:	80 91 04 08 	lds	r24, 0x0804	; 0x800804 <__TEXT_REGION_LENGTH__+0x7f4804>
     4e4:	80 78       	andi	r24, 0x80	; 128
     4e6:	80 93 04 08 	sts	0x0804, r24	; 0x800804 <__TEXT_REGION_LENGTH__+0x7f4804>
     4ea:	ff 91       	pop	r31
     4ec:	ef 91       	pop	r30
     4ee:	df 91       	pop	r29
     4f0:	cf 91       	pop	r28
     4f2:	bf 91       	pop	r27
     4f4:	af 91       	pop	r26
     4f6:	9f 91       	pop	r25
     4f8:	8f 91       	pop	r24
     4fa:	7f 91       	pop	r23
     4fc:	6f 91       	pop	r22
     4fe:	5f 91       	pop	r21
     500:	4f 91       	pop	r20
     502:	3f 91       	pop	r19
     504:	2f 91       	pop	r18
     506:	1f 91       	pop	r17
     508:	0f 91       	pop	r16
     50a:	0f 90       	pop	r0
     50c:	0f be       	out	0x3f, r0	; 63
     50e:	0f 90       	pop	r0
     510:	1f 90       	pop	r1
     512:	18 95       	reti
     514:	60 91 00 08 	lds	r22, 0x0800	; 0x800800 <__TEXT_REGION_LENGTH__+0x7f4800>
     518:	ce 01       	movw	r24, r28
     51a:	0e 94 a6 00 	call	0x14c	; 0x14c <FIFO_writebyte>
     51e:	80 91 d8 2b 	lds	r24, 0x2BD8	; 0x802bd8 <USART_bytes_received>
     522:	8f 5f       	subi	r24, 0xFF	; 255
     524:	80 93 d8 2b 	sts	0x2BD8, r24	; 0x802bd8 <USART_bytes_received>
     528:	90 91 d4 2b 	lds	r25, 0x2BD4	; 0x802bd4 <USART_bytes_to_receive>
     52c:	89 13       	cpse	r24, r25
     52e:	d8 cf       	rjmp	.-80     	; 0x4e0 <__vector_17+0x54>
     530:	80 91 c0 2b 	lds	r24, 0x2BC0	; 0x802bc0 <USART_receive_Array_callback>
     534:	90 91 c1 2b 	lds	r25, 0x2BC1	; 0x802bc1 <USART_receive_Array_callback+0x1>
     538:	89 2b       	or	r24, r25
     53a:	91 f2       	breq	.-92     	; 0x4e0 <__vector_17+0x54>
     53c:	fe 01       	movw	r30, r28
     53e:	c1 81       	ldd	r28, Z+1	; 0x01
     540:	c0 5e       	subi	r28, 0xE0	; 224
     542:	90 81       	ld	r25, Z
     544:	c9 1b       	sub	r28, r25
     546:	cf 71       	andi	r28, 0x1F	; 31
     548:	8c 2f       	mov	r24, r28
     54a:	90 e0       	ldi	r25, 0x00	; 0
     54c:	0e 94 be 10 	call	0x217c	; 0x217c <malloc>
     550:	8c 01       	movw	r16, r24
     552:	4c 2f       	mov	r20, r28
     554:	66 e0       	ldi	r22, 0x06	; 6
     556:	78 e2       	ldi	r23, 0x28	; 40
     558:	0e 94 73 01 	call	0x2e6	; 0x2e6 <FIFO_copy_to_lin>
     55c:	e0 91 c0 2b 	lds	r30, 0x2BC0	; 0x802bc0 <USART_receive_Array_callback>
     560:	f0 91 c1 2b 	lds	r31, 0x2BC1	; 0x802bc1 <USART_receive_Array_callback+0x1>
     564:	4c 2f       	mov	r20, r28
     566:	b8 01       	movw	r22, r16
     568:	80 e0       	ldi	r24, 0x00	; 0
     56a:	09 95       	icall
     56c:	c8 01       	movw	r24, r16
     56e:	0e 94 56 11 	call	0x22ac	; 0x22ac <free>
     572:	10 92 d8 2b 	sts	0x2BD8, r1	; 0x802bd8 <USART_bytes_received>
     576:	b4 cf       	rjmp	.-152    	; 0x4e0 <__vector_17+0x54>

00000578 <__vector_19>:
     578:	1f 92       	push	r1
     57a:	0f 92       	push	r0
     57c:	0f b6       	in	r0, 0x3f	; 63
     57e:	0f 92       	push	r0
     580:	11 24       	eor	r1, r1
     582:	2f 93       	push	r18
     584:	3f 93       	push	r19
     586:	4f 93       	push	r20
     588:	5f 93       	push	r21
     58a:	6f 93       	push	r22
     58c:	7f 93       	push	r23
     58e:	8f 93       	push	r24
     590:	9f 93       	push	r25
     592:	af 93       	push	r26
     594:	bf 93       	push	r27
     596:	ef 93       	push	r30
     598:	ff 93       	push	r31
     59a:	cf 93       	push	r28
     59c:	df 93       	push	r29
     59e:	cd b7       	in	r28, 0x3d	; 61
     5a0:	de b7       	in	r29, 0x3e	; 62
     5a2:	25 97       	sbiw	r28, 0x05	; 5
     5a4:	cd bf       	out	0x3d, r28	; 61
     5a6:	de bf       	out	0x3e, r29	; 62
     5a8:	1d 82       	std	Y+5, r1	; 0x05
     5aa:	80 91 06 08 	lds	r24, 0x0806	; 0x800806 <__TEXT_REGION_LENGTH__+0x7f4806>
     5ae:	80 ff       	sbrs	r24, 0
     5b0:	1b c0       	rjmp	.+54     	; 0x5e8 <__vector_19+0x70>
     5b2:	80 91 04 08 	lds	r24, 0x0804	; 0x800804 <__TEXT_REGION_LENGTH__+0x7f4804>
     5b6:	80 74       	andi	r24, 0x40	; 64
     5b8:	80 93 04 08 	sts	0x0804, r24	; 0x800804 <__TEXT_REGION_LENGTH__+0x7f4804>
     5bc:	25 96       	adiw	r28, 0x05	; 5
     5be:	cd bf       	out	0x3d, r28	; 61
     5c0:	de bf       	out	0x3e, r29	; 62
     5c2:	df 91       	pop	r29
     5c4:	cf 91       	pop	r28
     5c6:	ff 91       	pop	r31
     5c8:	ef 91       	pop	r30
     5ca:	bf 91       	pop	r27
     5cc:	af 91       	pop	r26
     5ce:	9f 91       	pop	r25
     5d0:	8f 91       	pop	r24
     5d2:	7f 91       	pop	r23
     5d4:	6f 91       	pop	r22
     5d6:	5f 91       	pop	r21
     5d8:	4f 91       	pop	r20
     5da:	3f 91       	pop	r19
     5dc:	2f 91       	pop	r18
     5de:	0f 90       	pop	r0
     5e0:	0f be       	out	0x3f, r0	; 63
     5e2:	0f 90       	pop	r0
     5e4:	1f 90       	pop	r1
     5e6:	18 95       	reti
     5e8:	be 01       	movw	r22, r28
     5ea:	6b 5f       	subi	r22, 0xFB	; 251
     5ec:	7f 4f       	sbci	r23, 0xFF	; 255
     5ee:	8f e6       	ldi	r24, 0x6F	; 111
     5f0:	98 e2       	ldi	r25, 0x28	; 40
     5f2:	0e 94 b7 00 	call	0x16e	; 0x16e <FIFO_readbyte>
     5f6:	81 11       	cpse	r24, r1
     5f8:	49 c0       	rjmp	.+146    	; 0x68c <__vector_19+0x114>
     5fa:	1c 82       	std	Y+4, r1	; 0x04
     5fc:	19 82       	std	Y+1, r1	; 0x01
     5fe:	1a 82       	std	Y+2, r1	; 0x02
     600:	1b 82       	std	Y+3, r1	; 0x03
     602:	a0 91 c8 2b 	lds	r26, 0x2BC8	; 0x802bc8 <USART_send_Array_callback>
     606:	b0 91 c9 2b 	lds	r27, 0x2BC9	; 0x802bc9 <USART_send_Array_callback+0x1>
     60a:	10 97       	sbiw	r26, 0x00	; 0
     60c:	91 f2       	breq	.-92     	; 0x5b2 <__vector_19+0x3a>
     60e:	ef e6       	ldi	r30, 0x6F	; 111
     610:	f8 e2       	ldi	r31, 0x28	; 40
     612:	80 81       	ld	r24, Z
     614:	81 5e       	subi	r24, 0xE1	; 225
     616:	91 81       	ldd	r25, Z+1	; 0x01
     618:	89 1b       	sub	r24, r25
     61a:	8f 71       	andi	r24, 0x1F	; 31
     61c:	28 2f       	mov	r18, r24
     61e:	ae 01       	movw	r20, r28
     620:	4d 5f       	subi	r20, 0xFD	; 253
     622:	5f 4f       	sbci	r21, 0xFF	; 255
     624:	be 01       	movw	r22, r28
     626:	6f 5f       	subi	r22, 0xFF	; 255
     628:	7f 4f       	sbci	r23, 0xFF	; 255
     62a:	ce 01       	movw	r24, r28
     62c:	04 96       	adiw	r24, 0x04	; 4
     62e:	fd 01       	movw	r30, r26
     630:	09 95       	icall
     632:	69 81       	ldd	r22, Y+1	; 0x01
     634:	7a 81       	ldd	r23, Y+2	; 0x02
     636:	61 15       	cp	r22, r1
     638:	71 05       	cpc	r23, r1
     63a:	09 f4       	brne	.+2      	; 0x63e <__vector_19+0xc6>
     63c:	ba cf       	rjmp	.-140    	; 0x5b2 <__vector_19+0x3a>
     63e:	4b 81       	ldd	r20, Y+3	; 0x03
     640:	44 23       	and	r20, r20
     642:	09 f4       	brne	.+2      	; 0x646 <__vector_19+0xce>
     644:	b6 cf       	rjmp	.-148    	; 0x5b2 <__vector_19+0x3a>
     646:	8f e6       	ldi	r24, 0x6F	; 111
     648:	98 e2       	ldi	r25, 0x28	; 40
     64a:	0e 94 de 01 	call	0x3bc	; 0x3bc <FIFO_copy_from_lin>
     64e:	89 81       	ldd	r24, Y+1	; 0x01
     650:	9a 81       	ldd	r25, Y+2	; 0x02
     652:	20 91 02 28 	lds	r18, 0x2802	; 0x802802 <__malloc_heap_start>
     656:	30 91 03 28 	lds	r19, 0x2803	; 0x802803 <__malloc_heap_start+0x1>
     65a:	28 17       	cp	r18, r24
     65c:	39 07       	cpc	r19, r25
     65e:	38 f4       	brcc	.+14     	; 0x66e <__vector_19+0xf6>
     660:	20 91 00 28 	lds	r18, 0x2800	; 0x802800 <__DATA_REGION_ORIGIN__>
     664:	30 91 01 28 	lds	r19, 0x2801	; 0x802801 <__DATA_REGION_ORIGIN__+0x1>
     668:	28 17       	cp	r18, r24
     66a:	39 07       	cpc	r19, r25
     66c:	b8 f4       	brcc	.+46     	; 0x69c <__vector_19+0x124>
     66e:	be 01       	movw	r22, r28
     670:	6b 5f       	subi	r22, 0xFB	; 251
     672:	7f 4f       	sbci	r23, 0xFF	; 255
     674:	8f e6       	ldi	r24, 0x6F	; 111
     676:	98 e2       	ldi	r25, 0x28	; 40
     678:	0e 94 b7 00 	call	0x16e	; 0x16e <FIFO_readbyte>
     67c:	88 23       	and	r24, r24
     67e:	09 f4       	brne	.+2      	; 0x682 <__vector_19+0x10a>
     680:	98 cf       	rjmp	.-208    	; 0x5b2 <__vector_19+0x3a>
     682:	80 91 04 08 	lds	r24, 0x0804	; 0x800804 <__TEXT_REGION_LENGTH__+0x7f4804>
     686:	85 ff       	sbrs	r24, 5
     688:	fc cf       	rjmp	.-8      	; 0x682 <__vector_19+0x10a>
     68a:	04 c0       	rjmp	.+8      	; 0x694 <__vector_19+0x11c>
     68c:	80 91 04 08 	lds	r24, 0x0804	; 0x800804 <__TEXT_REGION_LENGTH__+0x7f4804>
     690:	85 ff       	sbrs	r24, 5
     692:	8f cf       	rjmp	.-226    	; 0x5b2 <__vector_19+0x3a>
     694:	8d 81       	ldd	r24, Y+5	; 0x05
     696:	80 93 02 08 	sts	0x0802, r24	; 0x800802 <__TEXT_REGION_LENGTH__+0x7f4802>
     69a:	8b cf       	rjmp	.-234    	; 0x5b2 <__vector_19+0x3a>
     69c:	0e 94 56 11 	call	0x22ac	; 0x22ac <free>
     6a0:	e6 cf       	rjmp	.-52     	; 0x66e <__vector_19+0xf6>

000006a2 <__vector_26>:
     6a2:	1f 92       	push	r1
     6a4:	0f 92       	push	r0
     6a6:	0f b6       	in	r0, 0x3f	; 63
     6a8:	0f 92       	push	r0
     6aa:	11 24       	eor	r1, r1
     6ac:	0f 93       	push	r16
     6ae:	1f 93       	push	r17
     6b0:	2f 93       	push	r18
     6b2:	3f 93       	push	r19
     6b4:	4f 93       	push	r20
     6b6:	5f 93       	push	r21
     6b8:	6f 93       	push	r22
     6ba:	7f 93       	push	r23
     6bc:	8f 93       	push	r24
     6be:	9f 93       	push	r25
     6c0:	af 93       	push	r26
     6c2:	bf 93       	push	r27
     6c4:	cf 93       	push	r28
     6c6:	df 93       	push	r29
     6c8:	ef 93       	push	r30
     6ca:	ff 93       	push	r31
     6cc:	80 91 26 08 	lds	r24, 0x0826	; 0x800826 <__TEXT_REGION_LENGTH__+0x7f4826>
     6d0:	80 fd       	sbrc	r24, 0
     6d2:	11 c0       	rjmp	.+34     	; 0x6f6 <__vector_26+0x54>
     6d4:	80 91 24 08 	lds	r24, 0x0824	; 0x800824 <__TEXT_REGION_LENGTH__+0x7f4824>
     6d8:	87 ff       	sbrs	r24, 7
     6da:	0d c0       	rjmp	.+26     	; 0x6f6 <__vector_26+0x54>
     6dc:	c9 e2       	ldi	r28, 0x29	; 41
     6de:	d8 e2       	ldi	r29, 0x28	; 40
     6e0:	fe 01       	movw	r30, r28
     6e2:	80 81       	ld	r24, Z
     6e4:	91 81       	ldd	r25, Z+1	; 0x01
     6e6:	93 95       	inc	r25
     6e8:	9f 71       	andi	r25, 0x1F	; 31
     6ea:	98 17       	cp	r25, r24
     6ec:	80 e0       	ldi	r24, 0x00	; 0
     6ee:	09 f0       	breq	.+2      	; 0x6f2 <__vector_26+0x50>
     6f0:	81 e0       	ldi	r24, 0x01	; 1
     6f2:	81 11       	cpse	r24, r1
     6f4:	1a c0       	rjmp	.+52     	; 0x72a <__vector_26+0x88>
     6f6:	80 91 24 08 	lds	r24, 0x0824	; 0x800824 <__TEXT_REGION_LENGTH__+0x7f4824>
     6fa:	80 78       	andi	r24, 0x80	; 128
     6fc:	80 93 24 08 	sts	0x0824, r24	; 0x800824 <__TEXT_REGION_LENGTH__+0x7f4824>
     700:	ff 91       	pop	r31
     702:	ef 91       	pop	r30
     704:	df 91       	pop	r29
     706:	cf 91       	pop	r28
     708:	bf 91       	pop	r27
     70a:	af 91       	pop	r26
     70c:	9f 91       	pop	r25
     70e:	8f 91       	pop	r24
     710:	7f 91       	pop	r23
     712:	6f 91       	pop	r22
     714:	5f 91       	pop	r21
     716:	4f 91       	pop	r20
     718:	3f 91       	pop	r19
     71a:	2f 91       	pop	r18
     71c:	1f 91       	pop	r17
     71e:	0f 91       	pop	r16
     720:	0f 90       	pop	r0
     722:	0f be       	out	0x3f, r0	; 63
     724:	0f 90       	pop	r0
     726:	1f 90       	pop	r1
     728:	18 95       	reti
     72a:	60 91 20 08 	lds	r22, 0x0820	; 0x800820 <__TEXT_REGION_LENGTH__+0x7f4820>
     72e:	ce 01       	movw	r24, r28
     730:	0e 94 a6 00 	call	0x14c	; 0x14c <FIFO_writebyte>
     734:	80 91 d9 2b 	lds	r24, 0x2BD9	; 0x802bd9 <USART_bytes_received+0x1>
     738:	8f 5f       	subi	r24, 0xFF	; 255
     73a:	80 93 d9 2b 	sts	0x2BD9, r24	; 0x802bd9 <USART_bytes_received+0x1>
     73e:	90 91 d5 2b 	lds	r25, 0x2BD5	; 0x802bd5 <USART_bytes_to_receive+0x1>
     742:	89 13       	cpse	r24, r25
     744:	d8 cf       	rjmp	.-80     	; 0x6f6 <__vector_26+0x54>
     746:	80 91 c2 2b 	lds	r24, 0x2BC2	; 0x802bc2 <USART_receive_Array_callback+0x2>
     74a:	90 91 c3 2b 	lds	r25, 0x2BC3	; 0x802bc3 <USART_receive_Array_callback+0x3>
     74e:	89 2b       	or	r24, r25
     750:	91 f2       	breq	.-92     	; 0x6f6 <__vector_26+0x54>
     752:	fe 01       	movw	r30, r28
     754:	c1 81       	ldd	r28, Z+1	; 0x01
     756:	c0 5e       	subi	r28, 0xE0	; 224
     758:	90 81       	ld	r25, Z
     75a:	c9 1b       	sub	r28, r25
     75c:	cf 71       	andi	r28, 0x1F	; 31
     75e:	8c 2f       	mov	r24, r28
     760:	90 e0       	ldi	r25, 0x00	; 0
     762:	0e 94 be 10 	call	0x217c	; 0x217c <malloc>
     766:	8c 01       	movw	r16, r24
     768:	4c 2f       	mov	r20, r28
     76a:	69 e2       	ldi	r22, 0x29	; 41
     76c:	78 e2       	ldi	r23, 0x28	; 40
     76e:	0e 94 73 01 	call	0x2e6	; 0x2e6 <FIFO_copy_to_lin>
     772:	e0 91 c2 2b 	lds	r30, 0x2BC2	; 0x802bc2 <USART_receive_Array_callback+0x2>
     776:	f0 91 c3 2b 	lds	r31, 0x2BC3	; 0x802bc3 <USART_receive_Array_callback+0x3>
     77a:	4c 2f       	mov	r20, r28
     77c:	b8 01       	movw	r22, r16
     77e:	80 e0       	ldi	r24, 0x00	; 0
     780:	09 95       	icall
     782:	c8 01       	movw	r24, r16
     784:	0e 94 56 11 	call	0x22ac	; 0x22ac <free>
     788:	10 92 d9 2b 	sts	0x2BD9, r1	; 0x802bd9 <USART_bytes_received+0x1>
     78c:	b4 cf       	rjmp	.-152    	; 0x6f6 <__vector_26+0x54>

0000078e <__vector_28>:
     78e:	1f 92       	push	r1
     790:	0f 92       	push	r0
     792:	0f b6       	in	r0, 0x3f	; 63
     794:	0f 92       	push	r0
     796:	11 24       	eor	r1, r1
     798:	2f 93       	push	r18
     79a:	3f 93       	push	r19
     79c:	4f 93       	push	r20
     79e:	5f 93       	push	r21
     7a0:	6f 93       	push	r22
     7a2:	7f 93       	push	r23
     7a4:	8f 93       	push	r24
     7a6:	9f 93       	push	r25
     7a8:	af 93       	push	r26
     7aa:	bf 93       	push	r27
     7ac:	ef 93       	push	r30
     7ae:	ff 93       	push	r31
     7b0:	cf 93       	push	r28
     7b2:	df 93       	push	r29
     7b4:	cd b7       	in	r28, 0x3d	; 61
     7b6:	de b7       	in	r29, 0x3e	; 62
     7b8:	25 97       	sbiw	r28, 0x05	; 5
     7ba:	cd bf       	out	0x3d, r28	; 61
     7bc:	de bf       	out	0x3e, r29	; 62
     7be:	1d 82       	std	Y+5, r1	; 0x05
     7c0:	80 91 26 08 	lds	r24, 0x0826	; 0x800826 <__TEXT_REGION_LENGTH__+0x7f4826>
     7c4:	80 ff       	sbrs	r24, 0
     7c6:	1b c0       	rjmp	.+54     	; 0x7fe <__vector_28+0x70>
     7c8:	80 91 24 08 	lds	r24, 0x0824	; 0x800824 <__TEXT_REGION_LENGTH__+0x7f4824>
     7cc:	80 74       	andi	r24, 0x40	; 64
     7ce:	80 93 24 08 	sts	0x0824, r24	; 0x800824 <__TEXT_REGION_LENGTH__+0x7f4824>
     7d2:	25 96       	adiw	r28, 0x05	; 5
     7d4:	cd bf       	out	0x3d, r28	; 61
     7d6:	de bf       	out	0x3e, r29	; 62
     7d8:	df 91       	pop	r29
     7da:	cf 91       	pop	r28
     7dc:	ff 91       	pop	r31
     7de:	ef 91       	pop	r30
     7e0:	bf 91       	pop	r27
     7e2:	af 91       	pop	r26
     7e4:	9f 91       	pop	r25
     7e6:	8f 91       	pop	r24
     7e8:	7f 91       	pop	r23
     7ea:	6f 91       	pop	r22
     7ec:	5f 91       	pop	r21
     7ee:	4f 91       	pop	r20
     7f0:	3f 91       	pop	r19
     7f2:	2f 91       	pop	r18
     7f4:	0f 90       	pop	r0
     7f6:	0f be       	out	0x3f, r0	; 63
     7f8:	0f 90       	pop	r0
     7fa:	1f 90       	pop	r1
     7fc:	18 95       	reti
     7fe:	be 01       	movw	r22, r28
     800:	6b 5f       	subi	r22, 0xFB	; 251
     802:	7f 4f       	sbci	r23, 0xFF	; 255
     804:	82 e9       	ldi	r24, 0x92	; 146
     806:	98 e2       	ldi	r25, 0x28	; 40
     808:	0e 94 b7 00 	call	0x16e	; 0x16e <FIFO_readbyte>
     80c:	81 11       	cpse	r24, r1
     80e:	49 c0       	rjmp	.+146    	; 0x8a2 <__vector_28+0x114>
     810:	1c 82       	std	Y+4, r1	; 0x04
     812:	19 82       	std	Y+1, r1	; 0x01
     814:	1a 82       	std	Y+2, r1	; 0x02
     816:	1b 82       	std	Y+3, r1	; 0x03
     818:	a0 91 ca 2b 	lds	r26, 0x2BCA	; 0x802bca <USART_send_Array_callback+0x2>
     81c:	b0 91 cb 2b 	lds	r27, 0x2BCB	; 0x802bcb <USART_send_Array_callback+0x3>
     820:	10 97       	sbiw	r26, 0x00	; 0
     822:	91 f2       	breq	.-92     	; 0x7c8 <__vector_28+0x3a>
     824:	e2 e9       	ldi	r30, 0x92	; 146
     826:	f8 e2       	ldi	r31, 0x28	; 40
     828:	80 81       	ld	r24, Z
     82a:	81 5e       	subi	r24, 0xE1	; 225
     82c:	91 81       	ldd	r25, Z+1	; 0x01
     82e:	89 1b       	sub	r24, r25
     830:	8f 71       	andi	r24, 0x1F	; 31
     832:	28 2f       	mov	r18, r24
     834:	ae 01       	movw	r20, r28
     836:	4d 5f       	subi	r20, 0xFD	; 253
     838:	5f 4f       	sbci	r21, 0xFF	; 255
     83a:	be 01       	movw	r22, r28
     83c:	6f 5f       	subi	r22, 0xFF	; 255
     83e:	7f 4f       	sbci	r23, 0xFF	; 255
     840:	ce 01       	movw	r24, r28
     842:	04 96       	adiw	r24, 0x04	; 4
     844:	fd 01       	movw	r30, r26
     846:	09 95       	icall
     848:	69 81       	ldd	r22, Y+1	; 0x01
     84a:	7a 81       	ldd	r23, Y+2	; 0x02
     84c:	61 15       	cp	r22, r1
     84e:	71 05       	cpc	r23, r1
     850:	09 f4       	brne	.+2      	; 0x854 <__vector_28+0xc6>
     852:	ba cf       	rjmp	.-140    	; 0x7c8 <__vector_28+0x3a>
     854:	4b 81       	ldd	r20, Y+3	; 0x03
     856:	44 23       	and	r20, r20
     858:	09 f4       	brne	.+2      	; 0x85c <__vector_28+0xce>
     85a:	b6 cf       	rjmp	.-148    	; 0x7c8 <__vector_28+0x3a>
     85c:	82 e9       	ldi	r24, 0x92	; 146
     85e:	98 e2       	ldi	r25, 0x28	; 40
     860:	0e 94 de 01 	call	0x3bc	; 0x3bc <FIFO_copy_from_lin>
     864:	89 81       	ldd	r24, Y+1	; 0x01
     866:	9a 81       	ldd	r25, Y+2	; 0x02
     868:	20 91 02 28 	lds	r18, 0x2802	; 0x802802 <__malloc_heap_start>
     86c:	30 91 03 28 	lds	r19, 0x2803	; 0x802803 <__malloc_heap_start+0x1>
     870:	28 17       	cp	r18, r24
     872:	39 07       	cpc	r19, r25
     874:	38 f4       	brcc	.+14     	; 0x884 <__vector_28+0xf6>
     876:	20 91 00 28 	lds	r18, 0x2800	; 0x802800 <__DATA_REGION_ORIGIN__>
     87a:	30 91 01 28 	lds	r19, 0x2801	; 0x802801 <__DATA_REGION_ORIGIN__+0x1>
     87e:	28 17       	cp	r18, r24
     880:	39 07       	cpc	r19, r25
     882:	b8 f4       	brcc	.+46     	; 0x8b2 <__vector_28+0x124>
     884:	be 01       	movw	r22, r28
     886:	6b 5f       	subi	r22, 0xFB	; 251
     888:	7f 4f       	sbci	r23, 0xFF	; 255
     88a:	82 e9       	ldi	r24, 0x92	; 146
     88c:	98 e2       	ldi	r25, 0x28	; 40
     88e:	0e 94 b7 00 	call	0x16e	; 0x16e <FIFO_readbyte>
     892:	88 23       	and	r24, r24
     894:	09 f4       	brne	.+2      	; 0x898 <__vector_28+0x10a>
     896:	98 cf       	rjmp	.-208    	; 0x7c8 <__vector_28+0x3a>
     898:	80 91 24 08 	lds	r24, 0x0824	; 0x800824 <__TEXT_REGION_LENGTH__+0x7f4824>
     89c:	85 ff       	sbrs	r24, 5
     89e:	fc cf       	rjmp	.-8      	; 0x898 <__vector_28+0x10a>
     8a0:	04 c0       	rjmp	.+8      	; 0x8aa <__vector_28+0x11c>
     8a2:	80 91 24 08 	lds	r24, 0x0824	; 0x800824 <__TEXT_REGION_LENGTH__+0x7f4824>
     8a6:	85 ff       	sbrs	r24, 5
     8a8:	8f cf       	rjmp	.-226    	; 0x7c8 <__vector_28+0x3a>
     8aa:	8d 81       	ldd	r24, Y+5	; 0x05
     8ac:	80 93 22 08 	sts	0x0822, r24	; 0x800822 <__TEXT_REGION_LENGTH__+0x7f4822>
     8b0:	8b cf       	rjmp	.-234    	; 0x7c8 <__vector_28+0x3a>
     8b2:	0e 94 56 11 	call	0x22ac	; 0x22ac <free>
     8b6:	e6 cf       	rjmp	.-52     	; 0x884 <__vector_28+0xf6>

000008b8 <__vector_31>:
     8b8:	1f 92       	push	r1
     8ba:	0f 92       	push	r0
     8bc:	0f b6       	in	r0, 0x3f	; 63
     8be:	0f 92       	push	r0
     8c0:	11 24       	eor	r1, r1
     8c2:	0f 93       	push	r16
     8c4:	1f 93       	push	r17
     8c6:	2f 93       	push	r18
     8c8:	3f 93       	push	r19
     8ca:	4f 93       	push	r20
     8cc:	5f 93       	push	r21
     8ce:	6f 93       	push	r22
     8d0:	7f 93       	push	r23
     8d2:	8f 93       	push	r24
     8d4:	9f 93       	push	r25
     8d6:	af 93       	push	r26
     8d8:	bf 93       	push	r27
     8da:	cf 93       	push	r28
     8dc:	df 93       	push	r29
     8de:	ef 93       	push	r30
     8e0:	ff 93       	push	r31
     8e2:	80 91 46 08 	lds	r24, 0x0846	; 0x800846 <__TEXT_REGION_LENGTH__+0x7f4846>
     8e6:	80 fd       	sbrc	r24, 0
     8e8:	11 c0       	rjmp	.+34     	; 0x90c <__vector_31+0x54>
     8ea:	80 91 44 08 	lds	r24, 0x0844	; 0x800844 <__TEXT_REGION_LENGTH__+0x7f4844>
     8ee:	87 ff       	sbrs	r24, 7
     8f0:	0d c0       	rjmp	.+26     	; 0x90c <__vector_31+0x54>
     8f2:	cc e4       	ldi	r28, 0x4C	; 76
     8f4:	d8 e2       	ldi	r29, 0x28	; 40
     8f6:	fe 01       	movw	r30, r28
     8f8:	80 81       	ld	r24, Z
     8fa:	91 81       	ldd	r25, Z+1	; 0x01
     8fc:	93 95       	inc	r25
     8fe:	9f 71       	andi	r25, 0x1F	; 31
     900:	98 17       	cp	r25, r24
     902:	80 e0       	ldi	r24, 0x00	; 0
     904:	09 f0       	breq	.+2      	; 0x908 <__vector_31+0x50>
     906:	81 e0       	ldi	r24, 0x01	; 1
     908:	81 11       	cpse	r24, r1
     90a:	1a c0       	rjmp	.+52     	; 0x940 <__vector_31+0x88>
     90c:	80 91 44 08 	lds	r24, 0x0844	; 0x800844 <__TEXT_REGION_LENGTH__+0x7f4844>
     910:	80 78       	andi	r24, 0x80	; 128
     912:	80 93 44 08 	sts	0x0844, r24	; 0x800844 <__TEXT_REGION_LENGTH__+0x7f4844>
     916:	ff 91       	pop	r31
     918:	ef 91       	pop	r30
     91a:	df 91       	pop	r29
     91c:	cf 91       	pop	r28
     91e:	bf 91       	pop	r27
     920:	af 91       	pop	r26
     922:	9f 91       	pop	r25
     924:	8f 91       	pop	r24
     926:	7f 91       	pop	r23
     928:	6f 91       	pop	r22
     92a:	5f 91       	pop	r21
     92c:	4f 91       	pop	r20
     92e:	3f 91       	pop	r19
     930:	2f 91       	pop	r18
     932:	1f 91       	pop	r17
     934:	0f 91       	pop	r16
     936:	0f 90       	pop	r0
     938:	0f be       	out	0x3f, r0	; 63
     93a:	0f 90       	pop	r0
     93c:	1f 90       	pop	r1
     93e:	18 95       	reti
     940:	60 91 40 08 	lds	r22, 0x0840	; 0x800840 <__TEXT_REGION_LENGTH__+0x7f4840>
     944:	ce 01       	movw	r24, r28
     946:	0e 94 a6 00 	call	0x14c	; 0x14c <FIFO_writebyte>
     94a:	80 91 da 2b 	lds	r24, 0x2BDA	; 0x802bda <USART_bytes_received+0x2>
     94e:	8f 5f       	subi	r24, 0xFF	; 255
     950:	80 93 da 2b 	sts	0x2BDA, r24	; 0x802bda <USART_bytes_received+0x2>
     954:	90 91 d6 2b 	lds	r25, 0x2BD6	; 0x802bd6 <USART_bytes_to_receive+0x2>
     958:	89 13       	cpse	r24, r25
     95a:	d8 cf       	rjmp	.-80     	; 0x90c <__vector_31+0x54>
     95c:	80 91 c4 2b 	lds	r24, 0x2BC4	; 0x802bc4 <USART_receive_Array_callback+0x4>
     960:	90 91 c5 2b 	lds	r25, 0x2BC5	; 0x802bc5 <USART_receive_Array_callback+0x5>
     964:	89 2b       	or	r24, r25
     966:	91 f2       	breq	.-92     	; 0x90c <__vector_31+0x54>
     968:	fe 01       	movw	r30, r28
     96a:	c1 81       	ldd	r28, Z+1	; 0x01
     96c:	c0 5e       	subi	r28, 0xE0	; 224
     96e:	90 81       	ld	r25, Z
     970:	c9 1b       	sub	r28, r25
     972:	cf 71       	andi	r28, 0x1F	; 31
     974:	8c 2f       	mov	r24, r28
     976:	90 e0       	ldi	r25, 0x00	; 0
     978:	0e 94 be 10 	call	0x217c	; 0x217c <malloc>
     97c:	8c 01       	movw	r16, r24
     97e:	4c 2f       	mov	r20, r28
     980:	6c e4       	ldi	r22, 0x4C	; 76
     982:	78 e2       	ldi	r23, 0x28	; 40
     984:	0e 94 73 01 	call	0x2e6	; 0x2e6 <FIFO_copy_to_lin>
     988:	e0 91 c4 2b 	lds	r30, 0x2BC4	; 0x802bc4 <USART_receive_Array_callback+0x4>
     98c:	f0 91 c5 2b 	lds	r31, 0x2BC5	; 0x802bc5 <USART_receive_Array_callback+0x5>
     990:	4c 2f       	mov	r20, r28
     992:	b8 01       	movw	r22, r16
     994:	80 e0       	ldi	r24, 0x00	; 0
     996:	09 95       	icall
     998:	c8 01       	movw	r24, r16
     99a:	0e 94 56 11 	call	0x22ac	; 0x22ac <free>
     99e:	10 92 da 2b 	sts	0x2BDA, r1	; 0x802bda <USART_bytes_received+0x2>
     9a2:	b4 cf       	rjmp	.-152    	; 0x90c <__vector_31+0x54>

000009a4 <__vector_33>:
     9a4:	1f 92       	push	r1
     9a6:	0f 92       	push	r0
     9a8:	0f b6       	in	r0, 0x3f	; 63
     9aa:	0f 92       	push	r0
     9ac:	11 24       	eor	r1, r1
     9ae:	2f 93       	push	r18
     9b0:	3f 93       	push	r19
     9b2:	4f 93       	push	r20
     9b4:	5f 93       	push	r21
     9b6:	6f 93       	push	r22
     9b8:	7f 93       	push	r23
     9ba:	8f 93       	push	r24
     9bc:	9f 93       	push	r25
     9be:	af 93       	push	r26
     9c0:	bf 93       	push	r27
     9c2:	ef 93       	push	r30
     9c4:	ff 93       	push	r31
     9c6:	cf 93       	push	r28
     9c8:	df 93       	push	r29
     9ca:	cd b7       	in	r28, 0x3d	; 61
     9cc:	de b7       	in	r29, 0x3e	; 62
     9ce:	25 97       	sbiw	r28, 0x05	; 5
     9d0:	cd bf       	out	0x3d, r28	; 61
     9d2:	de bf       	out	0x3e, r29	; 62
     9d4:	1d 82       	std	Y+5, r1	; 0x05
     9d6:	80 91 46 08 	lds	r24, 0x0846	; 0x800846 <__TEXT_REGION_LENGTH__+0x7f4846>
     9da:	80 ff       	sbrs	r24, 0
     9dc:	1b c0       	rjmp	.+54     	; 0xa14 <__vector_33+0x70>
     9de:	80 91 44 08 	lds	r24, 0x0844	; 0x800844 <__TEXT_REGION_LENGTH__+0x7f4844>
     9e2:	80 74       	andi	r24, 0x40	; 64
     9e4:	80 93 44 08 	sts	0x0844, r24	; 0x800844 <__TEXT_REGION_LENGTH__+0x7f4844>
     9e8:	25 96       	adiw	r28, 0x05	; 5
     9ea:	cd bf       	out	0x3d, r28	; 61
     9ec:	de bf       	out	0x3e, r29	; 62
     9ee:	df 91       	pop	r29
     9f0:	cf 91       	pop	r28
     9f2:	ff 91       	pop	r31
     9f4:	ef 91       	pop	r30
     9f6:	bf 91       	pop	r27
     9f8:	af 91       	pop	r26
     9fa:	9f 91       	pop	r25
     9fc:	8f 91       	pop	r24
     9fe:	7f 91       	pop	r23
     a00:	6f 91       	pop	r22
     a02:	5f 91       	pop	r21
     a04:	4f 91       	pop	r20
     a06:	3f 91       	pop	r19
     a08:	2f 91       	pop	r18
     a0a:	0f 90       	pop	r0
     a0c:	0f be       	out	0x3f, r0	; 63
     a0e:	0f 90       	pop	r0
     a10:	1f 90       	pop	r1
     a12:	18 95       	reti
     a14:	be 01       	movw	r22, r28
     a16:	6b 5f       	subi	r22, 0xFB	; 251
     a18:	7f 4f       	sbci	r23, 0xFF	; 255
     a1a:	85 eb       	ldi	r24, 0xB5	; 181
     a1c:	98 e2       	ldi	r25, 0x28	; 40
     a1e:	0e 94 b7 00 	call	0x16e	; 0x16e <FIFO_readbyte>
     a22:	81 11       	cpse	r24, r1
     a24:	49 c0       	rjmp	.+146    	; 0xab8 <__vector_33+0x114>
     a26:	1c 82       	std	Y+4, r1	; 0x04
     a28:	19 82       	std	Y+1, r1	; 0x01
     a2a:	1a 82       	std	Y+2, r1	; 0x02
     a2c:	1b 82       	std	Y+3, r1	; 0x03
     a2e:	a0 91 cc 2b 	lds	r26, 0x2BCC	; 0x802bcc <USART_send_Array_callback+0x4>
     a32:	b0 91 cd 2b 	lds	r27, 0x2BCD	; 0x802bcd <USART_send_Array_callback+0x5>
     a36:	10 97       	sbiw	r26, 0x00	; 0
     a38:	91 f2       	breq	.-92     	; 0x9de <__vector_33+0x3a>
     a3a:	e5 eb       	ldi	r30, 0xB5	; 181
     a3c:	f8 e2       	ldi	r31, 0x28	; 40
     a3e:	80 81       	ld	r24, Z
     a40:	81 5e       	subi	r24, 0xE1	; 225
     a42:	91 81       	ldd	r25, Z+1	; 0x01
     a44:	89 1b       	sub	r24, r25
     a46:	8f 71       	andi	r24, 0x1F	; 31
     a48:	28 2f       	mov	r18, r24
     a4a:	ae 01       	movw	r20, r28
     a4c:	4d 5f       	subi	r20, 0xFD	; 253
     a4e:	5f 4f       	sbci	r21, 0xFF	; 255
     a50:	be 01       	movw	r22, r28
     a52:	6f 5f       	subi	r22, 0xFF	; 255
     a54:	7f 4f       	sbci	r23, 0xFF	; 255
     a56:	ce 01       	movw	r24, r28
     a58:	04 96       	adiw	r24, 0x04	; 4
     a5a:	fd 01       	movw	r30, r26
     a5c:	09 95       	icall
     a5e:	69 81       	ldd	r22, Y+1	; 0x01
     a60:	7a 81       	ldd	r23, Y+2	; 0x02
     a62:	61 15       	cp	r22, r1
     a64:	71 05       	cpc	r23, r1
     a66:	09 f4       	brne	.+2      	; 0xa6a <__vector_33+0xc6>
     a68:	ba cf       	rjmp	.-140    	; 0x9de <__vector_33+0x3a>
     a6a:	4b 81       	ldd	r20, Y+3	; 0x03
     a6c:	44 23       	and	r20, r20
     a6e:	09 f4       	brne	.+2      	; 0xa72 <__vector_33+0xce>
     a70:	b6 cf       	rjmp	.-148    	; 0x9de <__vector_33+0x3a>
     a72:	85 eb       	ldi	r24, 0xB5	; 181
     a74:	98 e2       	ldi	r25, 0x28	; 40
     a76:	0e 94 de 01 	call	0x3bc	; 0x3bc <FIFO_copy_from_lin>
     a7a:	89 81       	ldd	r24, Y+1	; 0x01
     a7c:	9a 81       	ldd	r25, Y+2	; 0x02
     a7e:	20 91 02 28 	lds	r18, 0x2802	; 0x802802 <__malloc_heap_start>
     a82:	30 91 03 28 	lds	r19, 0x2803	; 0x802803 <__malloc_heap_start+0x1>
     a86:	28 17       	cp	r18, r24
     a88:	39 07       	cpc	r19, r25
     a8a:	38 f4       	brcc	.+14     	; 0xa9a <__vector_33+0xf6>
     a8c:	20 91 00 28 	lds	r18, 0x2800	; 0x802800 <__DATA_REGION_ORIGIN__>
     a90:	30 91 01 28 	lds	r19, 0x2801	; 0x802801 <__DATA_REGION_ORIGIN__+0x1>
     a94:	28 17       	cp	r18, r24
     a96:	39 07       	cpc	r19, r25
     a98:	b8 f4       	brcc	.+46     	; 0xac8 <__vector_33+0x124>
     a9a:	be 01       	movw	r22, r28
     a9c:	6b 5f       	subi	r22, 0xFB	; 251
     a9e:	7f 4f       	sbci	r23, 0xFF	; 255
     aa0:	85 eb       	ldi	r24, 0xB5	; 181
     aa2:	98 e2       	ldi	r25, 0x28	; 40
     aa4:	0e 94 b7 00 	call	0x16e	; 0x16e <FIFO_readbyte>
     aa8:	88 23       	and	r24, r24
     aaa:	09 f4       	brne	.+2      	; 0xaae <__vector_33+0x10a>
     aac:	98 cf       	rjmp	.-208    	; 0x9de <__vector_33+0x3a>
     aae:	80 91 44 08 	lds	r24, 0x0844	; 0x800844 <__TEXT_REGION_LENGTH__+0x7f4844>
     ab2:	85 ff       	sbrs	r24, 5
     ab4:	fc cf       	rjmp	.-8      	; 0xaae <__vector_33+0x10a>
     ab6:	04 c0       	rjmp	.+8      	; 0xac0 <__vector_33+0x11c>
     ab8:	80 91 44 08 	lds	r24, 0x0844	; 0x800844 <__TEXT_REGION_LENGTH__+0x7f4844>
     abc:	85 ff       	sbrs	r24, 5
     abe:	8f cf       	rjmp	.-226    	; 0x9de <__vector_33+0x3a>
     ac0:	8d 81       	ldd	r24, Y+5	; 0x05
     ac2:	80 93 42 08 	sts	0x0842, r24	; 0x800842 <__TEXT_REGION_LENGTH__+0x7f4842>
     ac6:	8b cf       	rjmp	.-234    	; 0x9de <__vector_33+0x3a>
     ac8:	0e 94 56 11 	call	0x22ac	; 0x22ac <free>
     acc:	e6 cf       	rjmp	.-52     	; 0xa9a <__vector_33+0xf6>

00000ace <USART_init>:
     ace:	8f 92       	push	r8
     ad0:	af 92       	push	r10
     ad2:	cf 92       	push	r12
     ad4:	ef 92       	push	r14
     ad6:	0f 93       	push	r16
     ad8:	cf 93       	push	r28
     ada:	df 93       	push	r29
     adc:	cd b7       	in	r28, 0x3d	; 61
     ade:	de b7       	in	r29, 0x3e	; 62
     ae0:	a7 97       	sbiw	r28, 0x27	; 39
     ae2:	cd bf       	out	0x3d, r28	; 61
     ae4:	de bf       	out	0x3e, r29	; 62
     ae6:	8d 8f       	std	Y+29, r24	; 0x1d
     ae8:	4e 8f       	std	Y+30, r20	; 0x1e
     aea:	5f 8f       	std	Y+31, r21	; 0x1f
     aec:	68 a3       	std	Y+32, r22	; 0x20
     aee:	79 a3       	std	Y+33, r23	; 0x21
     af0:	2a a3       	std	Y+34, r18	; 0x22
     af2:	0b a3       	std	Y+35, r16	; 0x23
     af4:	ec a2       	std	Y+36, r14	; 0x24
     af6:	cd a2       	std	Y+37, r12	; 0x25
     af8:	ae a2       	std	Y+38, r10	; 0x26
     afa:	8f a2       	std	Y+39, r8	; 0x27
     afc:	8d 8d       	ldd	r24, Y+29	; 0x1d
     afe:	88 2f       	mov	r24, r24
     b00:	90 e0       	ldi	r25, 0x00	; 0
     b02:	88 0f       	add	r24, r24
     b04:	99 1f       	adc	r25, r25
     b06:	84 50       	subi	r24, 0x04	; 4
     b08:	9c 49       	sbci	r25, 0x9C	; 156
     b0a:	fc 01       	movw	r30, r24
     b0c:	80 81       	ld	r24, Z
     b0e:	91 81       	ldd	r25, Z+1	; 0x01
     b10:	8c 83       	std	Y+4, r24	; 0x04
     b12:	9d 83       	std	Y+5, r25	; 0x05
     b14:	1e 8a       	std	Y+22, r1	; 0x16
     b16:	1f 8a       	std	Y+23, r1	; 0x17
     b18:	18 8e       	std	Y+24, r1	; 0x18
     b1a:	19 8e       	std	Y+25, r1	; 0x19
     b1c:	83 e0       	ldi	r24, 0x03	; 3
     b1e:	8a 8f       	std	Y+26, r24	; 0x1a
     b20:	1b 8e       	std	Y+27, r1	; 0x1b
     b22:	80 ee       	ldi	r24, 0xE0	; 224
     b24:	95 e0       	ldi	r25, 0x05	; 5
     b26:	fc 01       	movw	r30, r24
     b28:	82 81       	ldd	r24, Z+2	; 0x02
     b2a:	8c 8f       	std	Y+28, r24	; 0x1c
     b2c:	81 e0       	ldi	r24, 0x01	; 1
     b2e:	89 83       	std	Y+1, r24	; 0x01
     b30:	8a a1       	ldd	r24, Y+34	; 0x22
     b32:	88 30       	cpi	r24, 0x08	; 8
     b34:	48 f4       	brcc	.+18     	; 0xb48 <USART_init+0x7a>
     b36:	8a a1       	ldd	r24, Y+34	; 0x22
     b38:	84 30       	cpi	r24, 0x04	; 4
     b3a:	18 f0       	brcs	.+6      	; 0xb42 <USART_init+0x74>
     b3c:	8a a1       	ldd	r24, Y+34	; 0x22
     b3e:	86 30       	cpi	r24, 0x06	; 6
     b40:	18 f0       	brcs	.+6      	; 0xb48 <USART_init+0x7a>
     b42:	8b a1       	ldd	r24, Y+35	; 0x23
     b44:	81 33       	cpi	r24, 0x31	; 49
     b46:	18 f0       	brcs	.+6      	; 0xb4e <USART_init+0x80>
     b48:	81 e0       	ldi	r24, 0x01	; 1
     b4a:	89 83       	std	Y+1, r24	; 0x01
     b4c:	1d c2       	rjmp	.+1082   	; 0xf88 <USART_init+0x4ba>
     b4e:	8c 81       	ldd	r24, Y+4	; 0x04
     b50:	9d 81       	ldd	r25, Y+5	; 0x05
     b52:	89 2b       	or	r24, r25
     b54:	09 f4       	brne	.+2      	; 0xb58 <USART_init+0x8a>
     b56:	18 c2       	rjmp	.+1072   	; 0xf88 <USART_init+0x4ba>
     b58:	8d a1       	ldd	r24, Y+37	; 0x25
     b5a:	88 23       	and	r24, r24
     b5c:	09 f4       	brne	.+2      	; 0xb60 <USART_init+0x92>
     b5e:	4a c0       	rjmp	.+148    	; 0xbf4 <USART_init+0x126>
     b60:	80 91 bc 2b 	lds	r24, 0x2BBC	; 0x802bbc <__data_end>
     b64:	90 91 bd 2b 	lds	r25, 0x2BBD	; 0x802bbd <__data_end+0x1>
     b68:	a0 91 be 2b 	lds	r26, 0x2BBE	; 0x802bbe <__data_end+0x2>
     b6c:	b0 91 bf 2b 	lds	r27, 0x2BBF	; 0x802bbf <__data_end+0x3>
     b70:	2e 8d       	ldd	r18, Y+30	; 0x1e
     b72:	3f 8d       	ldd	r19, Y+31	; 0x1f
     b74:	48 a1       	ldd	r20, Y+32	; 0x20
     b76:	59 a1       	ldd	r21, Y+33	; 0x21
     b78:	bc 01       	movw	r22, r24
     b7a:	cd 01       	movw	r24, r26
     b7c:	0e 94 72 10 	call	0x20e4	; 0x20e4 <__udivmodsi4>
     b80:	da 01       	movw	r26, r20
     b82:	c9 01       	movw	r24, r18
     b84:	b6 95       	lsr	r27
     b86:	a7 95       	ror	r26
     b88:	97 95       	ror	r25
     b8a:	87 95       	ror	r24
     b8c:	88 0f       	add	r24, r24
     b8e:	99 1f       	adc	r25, r25
     b90:	aa 1f       	adc	r26, r26
     b92:	bb 1f       	adc	r27, r27
     b94:	88 0f       	add	r24, r24
     b96:	99 1f       	adc	r25, r25
     b98:	aa 1f       	adc	r26, r26
     b9a:	bb 1f       	adc	r27, r27
     b9c:	88 0f       	add	r24, r24
     b9e:	99 1f       	adc	r25, r25
     ba0:	aa 1f       	adc	r26, r26
     ba2:	bb 1f       	adc	r27, r27
     ba4:	88 0f       	add	r24, r24
     ba6:	99 1f       	adc	r25, r25
     ba8:	aa 1f       	adc	r26, r26
     baa:	bb 1f       	adc	r27, r27
     bac:	88 0f       	add	r24, r24
     bae:	99 1f       	adc	r25, r25
     bb0:	aa 1f       	adc	r26, r26
     bb2:	bb 1f       	adc	r27, r27
     bb4:	88 0f       	add	r24, r24
     bb6:	99 1f       	adc	r25, r25
     bb8:	aa 1f       	adc	r26, r26
     bba:	bb 1f       	adc	r27, r27
     bbc:	8e 83       	std	Y+6, r24	; 0x06
     bbe:	9f 83       	std	Y+7, r25	; 0x07
     bc0:	a8 87       	std	Y+8, r26	; 0x08
     bc2:	b9 87       	std	Y+9, r27	; 0x09
     bc4:	8f ef       	ldi	r24, 0xFF	; 255
     bc6:	9f ef       	ldi	r25, 0xFF	; 255
     bc8:	8a 87       	std	Y+10, r24	; 0x0a
     bca:	9b 87       	std	Y+11, r25	; 0x0b
     bcc:	8a 85       	ldd	r24, Y+10	; 0x0a
     bce:	9b 85       	ldd	r25, Y+11	; 0x0b
     bd0:	9c 01       	movw	r18, r24
     bd2:	40 e0       	ldi	r20, 0x00	; 0
     bd4:	50 e0       	ldi	r21, 0x00	; 0
     bd6:	8e 81       	ldd	r24, Y+6	; 0x06
     bd8:	9f 81       	ldd	r25, Y+7	; 0x07
     bda:	a8 85       	ldd	r26, Y+8	; 0x08
     bdc:	b9 85       	ldd	r27, Y+9	; 0x09
     bde:	82 17       	cp	r24, r18
     be0:	93 07       	cpc	r25, r19
     be2:	a4 07       	cpc	r26, r20
     be4:	b5 07       	cpc	r27, r21
     be6:	10 f4       	brcc	.+4      	; 0xbec <USART_init+0x11e>
     be8:	9c 01       	movw	r18, r24
     bea:	ad 01       	movw	r20, r26
     bec:	c9 01       	movw	r24, r18
     bee:	8e 8b       	std	Y+22, r24	; 0x16
     bf0:	9f 8b       	std	Y+23, r25	; 0x17
     bf2:	42 c0       	rjmp	.+132    	; 0xc78 <USART_init+0x1aa>
     bf4:	80 91 bc 2b 	lds	r24, 0x2BBC	; 0x802bbc <__data_end>
     bf8:	90 91 bd 2b 	lds	r25, 0x2BBD	; 0x802bbd <__data_end+0x1>
     bfc:	a0 91 be 2b 	lds	r26, 0x2BBE	; 0x802bbe <__data_end+0x2>
     c00:	b0 91 bf 2b 	lds	r27, 0x2BBF	; 0x802bbf <__data_end+0x3>
     c04:	88 0f       	add	r24, r24
     c06:	99 1f       	adc	r25, r25
     c08:	aa 1f       	adc	r26, r26
     c0a:	bb 1f       	adc	r27, r27
     c0c:	88 0f       	add	r24, r24
     c0e:	99 1f       	adc	r25, r25
     c10:	aa 1f       	adc	r26, r26
     c12:	bb 1f       	adc	r27, r27
     c14:	88 0f       	add	r24, r24
     c16:	99 1f       	adc	r25, r25
     c18:	aa 1f       	adc	r26, r26
     c1a:	bb 1f       	adc	r27, r27
     c1c:	2e 8d       	ldd	r18, Y+30	; 0x1e
     c1e:	3f 8d       	ldd	r19, Y+31	; 0x1f
     c20:	48 a1       	ldd	r20, Y+32	; 0x20
     c22:	59 a1       	ldd	r21, Y+33	; 0x21
     c24:	bc 01       	movw	r22, r24
     c26:	cd 01       	movw	r24, r26
     c28:	0e 94 72 10 	call	0x20e4	; 0x20e4 <__udivmodsi4>
     c2c:	da 01       	movw	r26, r20
     c2e:	c9 01       	movw	r24, r18
     c30:	8c 87       	std	Y+12, r24	; 0x0c
     c32:	9d 87       	std	Y+13, r25	; 0x0d
     c34:	ae 87       	std	Y+14, r26	; 0x0e
     c36:	bf 87       	std	Y+15, r27	; 0x0f
     c38:	8f ef       	ldi	r24, 0xFF	; 255
     c3a:	9f ef       	ldi	r25, 0xFF	; 255
     c3c:	88 8b       	std	Y+16, r24	; 0x10
     c3e:	99 8b       	std	Y+17, r25	; 0x11
     c40:	88 89       	ldd	r24, Y+16	; 0x10
     c42:	99 89       	ldd	r25, Y+17	; 0x11
     c44:	9c 01       	movw	r18, r24
     c46:	40 e0       	ldi	r20, 0x00	; 0
     c48:	50 e0       	ldi	r21, 0x00	; 0
     c4a:	8c 85       	ldd	r24, Y+12	; 0x0c
     c4c:	9d 85       	ldd	r25, Y+13	; 0x0d
     c4e:	ae 85       	ldd	r26, Y+14	; 0x0e
     c50:	bf 85       	ldd	r27, Y+15	; 0x0f
     c52:	82 17       	cp	r24, r18
     c54:	93 07       	cpc	r25, r19
     c56:	a4 07       	cpc	r26, r20
     c58:	b5 07       	cpc	r27, r21
     c5a:	10 f4       	brcc	.+4      	; 0xc60 <USART_init+0x192>
     c5c:	9c 01       	movw	r18, r24
     c5e:	ad 01       	movw	r20, r26
     c60:	c9 01       	movw	r24, r18
     c62:	8e 8b       	std	Y+22, r24	; 0x16
     c64:	9f 8b       	std	Y+23, r25	; 0x17
     c66:	8e 89       	ldd	r24, Y+22	; 0x16
     c68:	9f 89       	ldd	r25, Y+23	; 0x17
     c6a:	80 34       	cpi	r24, 0x40	; 64
     c6c:	91 05       	cpc	r25, r1
     c6e:	20 f4       	brcc	.+8      	; 0xc78 <USART_init+0x1aa>
     c70:	80 e4       	ldi	r24, 0x40	; 64
     c72:	90 e0       	ldi	r25, 0x00	; 0
     c74:	8e 8b       	std	Y+22, r24	; 0x16
     c76:	9f 8b       	std	Y+23, r25	; 0x17
     c78:	8a a1       	ldd	r24, Y+34	; 0x22
     c7a:	87 70       	andi	r24, 0x07	; 7
     c7c:	87 70       	andi	r24, 0x07	; 7
     c7e:	9a 8d       	ldd	r25, Y+26	; 0x1a
     c80:	98 7f       	andi	r25, 0xF8	; 248
     c82:	89 2b       	or	r24, r25
     c84:	8a 8f       	std	Y+26, r24	; 0x1a
     c86:	8b a1       	ldd	r24, Y+35	; 0x23
     c88:	82 95       	swap	r24
     c8a:	8f 70       	andi	r24, 0x0F	; 15
     c8c:	83 70       	andi	r24, 0x03	; 3
     c8e:	83 70       	andi	r24, 0x03	; 3
     c90:	82 95       	swap	r24
     c92:	80 7f       	andi	r24, 0xF0	; 240
     c94:	9a 8d       	ldd	r25, Y+26	; 0x1a
     c96:	9f 7c       	andi	r25, 0xCF	; 207
     c98:	89 2b       	or	r24, r25
     c9a:	8a 8f       	std	Y+26, r24	; 0x1a
     c9c:	8d a1       	ldd	r24, Y+37	; 0x25
     c9e:	88 23       	and	r24, r24
     ca0:	29 f0       	breq	.+10     	; 0xcac <USART_init+0x1de>
     ca2:	8a 8d       	ldd	r24, Y+26	; 0x1a
     ca4:	8f 73       	andi	r24, 0x3F	; 63
     ca6:	80 64       	ori	r24, 0x40	; 64
     ca8:	8a 8f       	std	Y+26, r24	; 0x1a
     caa:	03 c0       	rjmp	.+6      	; 0xcb2 <USART_init+0x1e4>
     cac:	8a 8d       	ldd	r24, Y+26	; 0x1a
     cae:	8f 73       	andi	r24, 0x3F	; 63
     cb0:	8a 8f       	std	Y+26, r24	; 0x1a
     cb2:	8e a1       	ldd	r24, Y+38	; 0x26
     cb4:	88 23       	and	r24, r24
     cb6:	99 f0       	breq	.+38     	; 0xcde <USART_init+0x210>
     cb8:	88 8d       	ldd	r24, Y+24	; 0x18
     cba:	8c 7f       	andi	r24, 0xFC	; 252
     cbc:	81 60       	ori	r24, 0x01	; 1
     cbe:	88 8f       	std	Y+24, r24	; 0x18
     cc0:	89 8d       	ldd	r24, Y+25	; 0x19
     cc2:	81 60       	ori	r24, 0x01	; 1
     cc4:	89 8f       	std	Y+25, r24	; 0x19
     cc6:	8d 8d       	ldd	r24, Y+29	; 0x1d
     cc8:	88 2f       	mov	r24, r24
     cca:	90 e0       	ldi	r25, 0x00	; 0
     ccc:	80 53       	subi	r24, 0x30	; 48
     cce:	94 4d       	sbci	r25, 0xD4	; 212
     cd0:	2f a1       	ldd	r18, Y+39	; 0x27
     cd2:	fc 01       	movw	r30, r24
     cd4:	20 83       	st	Z, r18
     cd6:	8a 8d       	ldd	r24, Y+26	; 0x1a
     cd8:	88 60       	ori	r24, 0x08	; 8
     cda:	8a 8f       	std	Y+26, r24	; 0x1a
     cdc:	1a c0       	rjmp	.+52     	; 0xd12 <USART_init+0x244>
     cde:	88 8d       	ldd	r24, Y+24	; 0x18
     ce0:	8c 7f       	andi	r24, 0xFC	; 252
     ce2:	88 8f       	std	Y+24, r24	; 0x18
     ce4:	89 8d       	ldd	r24, Y+25	; 0x19
     ce6:	8e 7f       	andi	r24, 0xFE	; 254
     ce8:	89 8f       	std	Y+25, r24	; 0x19
     cea:	8d 8d       	ldd	r24, Y+29	; 0x1d
     cec:	88 2f       	mov	r24, r24
     cee:	90 e0       	ldi	r25, 0x00	; 0
     cf0:	80 53       	subi	r24, 0x30	; 48
     cf2:	94 4d       	sbci	r25, 0xD4	; 212
     cf4:	fc 01       	movw	r30, r24
     cf6:	10 82       	st	Z, r1
     cf8:	8c a1       	ldd	r24, Y+36	; 0x24
     cfa:	86 95       	lsr	r24
     cfc:	86 95       	lsr	r24
     cfe:	86 95       	lsr	r24
     d00:	81 70       	andi	r24, 0x01	; 1
     d02:	81 70       	andi	r24, 0x01	; 1
     d04:	88 0f       	add	r24, r24
     d06:	88 0f       	add	r24, r24
     d08:	88 0f       	add	r24, r24
     d0a:	9a 8d       	ldd	r25, Y+26	; 0x1a
     d0c:	97 7f       	andi	r25, 0xF7	; 247
     d0e:	89 2b       	or	r24, r25
     d10:	8a 8f       	std	Y+26, r24	; 0x1a
     d12:	9d a1       	ldd	r25, Y+37	; 0x25
     d14:	81 e0       	ldi	r24, 0x01	; 1
     d16:	89 27       	eor	r24, r25
     d18:	88 23       	and	r24, r24
     d1a:	21 f0       	breq	.+8      	; 0xd24 <USART_init+0x256>
     d1c:	89 8d       	ldd	r24, Y+25	; 0x19
     d1e:	89 7f       	andi	r24, 0xF9	; 249
     d20:	82 60       	ori	r24, 0x02	; 2
     d22:	89 8f       	std	Y+25, r24	; 0x19
     d24:	80 ee       	ldi	r24, 0xE0	; 224
     d26:	95 e0       	ldi	r25, 0x05	; 5
     d28:	fc 01       	movw	r30, r24
     d2a:	82 81       	ldd	r24, Z+2	; 0x02
     d2c:	8c 8f       	std	Y+28, r24	; 0x1c
     d2e:	8d 8d       	ldd	r24, Y+29	; 0x1d
     d30:	88 2f       	mov	r24, r24
     d32:	90 e0       	ldi	r25, 0x00	; 0
     d34:	81 30       	cpi	r24, 0x01	; 1
     d36:	91 05       	cpc	r25, r1
     d38:	b9 f0       	breq	.+46     	; 0xd68 <USART_init+0x29a>
     d3a:	82 30       	cpi	r24, 0x02	; 2
     d3c:	91 05       	cpc	r25, r1
     d3e:	1c f4       	brge	.+6      	; 0xd46 <USART_init+0x278>
     d40:	89 2b       	or	r24, r25
     d42:	39 f0       	breq	.+14     	; 0xd52 <USART_init+0x284>
     d44:	2d c0       	rjmp	.+90     	; 0xda0 <USART_init+0x2d2>
     d46:	82 30       	cpi	r24, 0x02	; 2
     d48:	91 05       	cpc	r25, r1
     d4a:	c1 f0       	breq	.+48     	; 0xd7c <USART_init+0x2ae>
     d4c:	03 97       	sbiw	r24, 0x03	; 3
     d4e:	01 f1       	breq	.+64     	; 0xd90 <USART_init+0x2c2>
     d50:	27 c0       	rjmp	.+78     	; 0xda0 <USART_init+0x2d2>
     d52:	89 a9       	ldd	r24, Y+49	; 0x31
     d54:	83 70       	andi	r24, 0x03	; 3
     d56:	82 95       	swap	r24
     d58:	88 0f       	add	r24, r24
     d5a:	88 0f       	add	r24, r24
     d5c:	80 7c       	andi	r24, 0xC0	; 192
     d5e:	9c 8d       	ldd	r25, Y+28	; 0x1c
     d60:	9f 73       	andi	r25, 0x3F	; 63
     d62:	89 2b       	or	r24, r25
     d64:	8c 8f       	std	Y+28, r24	; 0x1c
     d66:	1c c0       	rjmp	.+56     	; 0xda0 <USART_init+0x2d2>
     d68:	89 a9       	ldd	r24, Y+49	; 0x31
     d6a:	83 70       	andi	r24, 0x03	; 3
     d6c:	83 70       	andi	r24, 0x03	; 3
     d6e:	82 95       	swap	r24
     d70:	80 7f       	andi	r24, 0xF0	; 240
     d72:	9c 8d       	ldd	r25, Y+28	; 0x1c
     d74:	9f 7c       	andi	r25, 0xCF	; 207
     d76:	89 2b       	or	r24, r25
     d78:	8c 8f       	std	Y+28, r24	; 0x1c
     d7a:	12 c0       	rjmp	.+36     	; 0xda0 <USART_init+0x2d2>
     d7c:	89 a9       	ldd	r24, Y+49	; 0x31
     d7e:	83 70       	andi	r24, 0x03	; 3
     d80:	83 70       	andi	r24, 0x03	; 3
     d82:	88 0f       	add	r24, r24
     d84:	88 0f       	add	r24, r24
     d86:	9c 8d       	ldd	r25, Y+28	; 0x1c
     d88:	93 7f       	andi	r25, 0xF3	; 243
     d8a:	89 2b       	or	r24, r25
     d8c:	8c 8f       	std	Y+28, r24	; 0x1c
     d8e:	08 c0       	rjmp	.+16     	; 0xda0 <USART_init+0x2d2>
     d90:	89 a9       	ldd	r24, Y+49	; 0x31
     d92:	83 70       	andi	r24, 0x03	; 3
     d94:	83 70       	andi	r24, 0x03	; 3
     d96:	9c 8d       	ldd	r25, Y+28	; 0x1c
     d98:	9c 7f       	andi	r25, 0xFC	; 252
     d9a:	89 2b       	or	r24, r25
     d9c:	8c 8f       	std	Y+28, r24	; 0x1c
     d9e:	00 00       	nop
     da0:	89 8d       	ldd	r24, Y+25	; 0x19
     da2:	80 68       	ori	r24, 0x80	; 128
     da4:	89 8f       	std	Y+25, r24	; 0x19
     da6:	89 8d       	ldd	r24, Y+25	; 0x19
     da8:	80 64       	ori	r24, 0x40	; 64
     daa:	89 8f       	std	Y+25, r24	; 0x19
     dac:	88 8d       	ldd	r24, Y+24	; 0x18
     dae:	80 68       	ori	r24, 0x80	; 128
     db0:	88 8f       	std	Y+24, r24	; 0x18
     db2:	88 8d       	ldd	r24, Y+24	; 0x18
     db4:	80 64       	ori	r24, 0x40	; 64
     db6:	88 8f       	std	Y+24, r24	; 0x18
     db8:	80 ee       	ldi	r24, 0xE0	; 224
     dba:	95 e0       	ldi	r25, 0x05	; 5
     dbc:	2c 8d       	ldd	r18, Y+28	; 0x1c
     dbe:	fc 01       	movw	r30, r24
     dc0:	22 83       	std	Z+2, r18	; 0x02
     dc2:	28 8d       	ldd	r18, Y+24	; 0x18
     dc4:	8c 81       	ldd	r24, Y+4	; 0x04
     dc6:	9d 81       	ldd	r25, Y+5	; 0x05
     dc8:	fc 01       	movw	r30, r24
     dca:	25 83       	std	Z+5, r18	; 0x05
     dcc:	29 8d       	ldd	r18, Y+25	; 0x19
     dce:	8c 81       	ldd	r24, Y+4	; 0x04
     dd0:	9d 81       	ldd	r25, Y+5	; 0x05
     dd2:	fc 01       	movw	r30, r24
     dd4:	26 83       	std	Z+6, r18	; 0x06
     dd6:	2a 8d       	ldd	r18, Y+26	; 0x1a
     dd8:	8c 81       	ldd	r24, Y+4	; 0x04
     dda:	9d 81       	ldd	r25, Y+5	; 0x05
     ddc:	fc 01       	movw	r30, r24
     dde:	27 83       	std	Z+7, r18	; 0x07
     de0:	2b 8d       	ldd	r18, Y+27	; 0x1b
     de2:	8c 81       	ldd	r24, Y+4	; 0x04
     de4:	9d 81       	ldd	r25, Y+5	; 0x05
     de6:	fc 01       	movw	r30, r24
     de8:	22 87       	std	Z+10, r18	; 0x0a
     dea:	2e 89       	ldd	r18, Y+22	; 0x16
     dec:	3f 89       	ldd	r19, Y+23	; 0x17
     dee:	8c 81       	ldd	r24, Y+4	; 0x04
     df0:	9d 81       	ldd	r25, Y+5	; 0x05
     df2:	fc 01       	movw	r30, r24
     df4:	20 87       	std	Z+8, r18	; 0x08
     df6:	31 87       	std	Z+9, r19	; 0x09
     df8:	8c 81       	ldd	r24, Y+4	; 0x04
     dfa:	9d 81       	ldd	r25, Y+5	; 0x05
     dfc:	fc 01       	movw	r30, r24
     dfe:	13 86       	std	Z+11, r1	; 0x0b
     e00:	8c 81       	ldd	r24, Y+4	; 0x04
     e02:	9d 81       	ldd	r25, Y+5	; 0x05
     e04:	fc 01       	movw	r30, r24
     e06:	14 86       	std	Z+12, r1	; 0x0c
     e08:	8c 81       	ldd	r24, Y+4	; 0x04
     e0a:	9d 81       	ldd	r25, Y+5	; 0x05
     e0c:	fc 01       	movw	r30, r24
     e0e:	15 86       	std	Z+13, r1	; 0x0d
     e10:	8c 81       	ldd	r24, Y+4	; 0x04
     e12:	9d 81       	ldd	r25, Y+5	; 0x05
     e14:	fc 01       	movw	r30, r24
     e16:	16 86       	std	Z+14, r1	; 0x0e
     e18:	1a 82       	std	Y+2, r1	; 0x02
     e1a:	1b 82       	std	Y+3, r1	; 0x03
     e1c:	00 00       	nop
     e1e:	80 e0       	ldi	r24, 0x00	; 0
     e20:	90 e1       	ldi	r25, 0x10	; 16
     e22:	fc 01       	movw	r30, r24
     e24:	82 81       	ldd	r24, Z+2	; 0x02
     e26:	88 2f       	mov	r24, r24
     e28:	90 e0       	ldi	r25, 0x00	; 0
     e2a:	82 70       	andi	r24, 0x02	; 2
     e2c:	99 27       	eor	r25, r25
     e2e:	89 2b       	or	r24, r25
     e30:	b1 f7       	brne	.-20     	; 0xe1e <USART_init+0x350>
     e32:	8d 8d       	ldd	r24, Y+29	; 0x1d
     e34:	88 2f       	mov	r24, r24
     e36:	90 e0       	ldi	r25, 0x00	; 0
     e38:	80 50       	subi	r24, 0x00	; 0
     e3a:	90 40       	sbci	r25, 0x00	; 0
     e3c:	9c 5e       	subi	r25, 0xEC	; 236
     e3e:	fc 01       	movw	r30, r24
     e40:	80 81       	ld	r24, Z
     e42:	8a 8b       	std	Y+18, r24	; 0x12
     e44:	00 00       	nop
     e46:	80 e0       	ldi	r24, 0x00	; 0
     e48:	90 e1       	ldi	r25, 0x10	; 16
     e4a:	fc 01       	movw	r30, r24
     e4c:	82 81       	ldd	r24, Z+2	; 0x02
     e4e:	88 2f       	mov	r24, r24
     e50:	90 e0       	ldi	r25, 0x00	; 0
     e52:	82 70       	andi	r24, 0x02	; 2
     e54:	99 27       	eor	r25, r25
     e56:	89 2b       	or	r24, r25
     e58:	b1 f7       	brne	.-20     	; 0xe46 <USART_init+0x378>
     e5a:	89 a9       	ldd	r24, Y+49	; 0x31
     e5c:	88 2f       	mov	r24, r24
     e5e:	90 e0       	ldi	r25, 0x00	; 0
     e60:	8c 5e       	subi	r24, 0xEC	; 236
     e62:	9f 4f       	sbci	r25, 0xFF	; 255
     e64:	9c 5e       	subi	r25, 0xEC	; 236
     e66:	fc 01       	movw	r30, r24
     e68:	80 81       	ld	r24, Z
     e6a:	8b 8b       	std	Y+19, r24	; 0x13
     e6c:	00 00       	nop
     e6e:	80 e0       	ldi	r24, 0x00	; 0
     e70:	90 e1       	ldi	r25, 0x10	; 16
     e72:	fc 01       	movw	r30, r24
     e74:	82 81       	ldd	r24, Z+2	; 0x02
     e76:	88 2f       	mov	r24, r24
     e78:	90 e0       	ldi	r25, 0x00	; 0
     e7a:	82 70       	andi	r24, 0x02	; 2
     e7c:	99 27       	eor	r25, r25
     e7e:	89 2b       	or	r24, r25
     e80:	b1 f7       	brne	.-20     	; 0xe6e <USART_init+0x3a0>
     e82:	8d 8d       	ldd	r24, Y+29	; 0x1d
     e84:	88 2f       	mov	r24, r24
     e86:	90 e0       	ldi	r25, 0x00	; 0
     e88:	8c 5f       	subi	r24, 0xFC	; 252
     e8a:	9f 4f       	sbci	r25, 0xFF	; 255
     e8c:	9c 5e       	subi	r25, 0xEC	; 236
     e8e:	fc 01       	movw	r30, r24
     e90:	80 81       	ld	r24, Z
     e92:	8c 8b       	std	Y+20, r24	; 0x14
     e94:	00 00       	nop
     e96:	80 e0       	ldi	r24, 0x00	; 0
     e98:	90 e1       	ldi	r25, 0x10	; 16
     e9a:	fc 01       	movw	r30, r24
     e9c:	82 81       	ldd	r24, Z+2	; 0x02
     e9e:	88 2f       	mov	r24, r24
     ea0:	90 e0       	ldi	r25, 0x00	; 0
     ea2:	82 70       	andi	r24, 0x02	; 2
     ea4:	99 27       	eor	r25, r25
     ea6:	89 2b       	or	r24, r25
     ea8:	b1 f7       	brne	.-20     	; 0xe96 <USART_init+0x3c8>
     eaa:	8d 8d       	ldd	r24, Y+29	; 0x1d
     eac:	88 2f       	mov	r24, r24
     eae:	90 e0       	ldi	r25, 0x00	; 0
     eb0:	88 5f       	subi	r24, 0xF8	; 248
     eb2:	9f 4f       	sbci	r25, 0xFF	; 255
     eb4:	9c 5e       	subi	r25, 0xEC	; 236
     eb6:	fc 01       	movw	r30, r24
     eb8:	80 81       	ld	r24, Z
     eba:	8d 8b       	std	Y+21, r24	; 0x15
     ebc:	8d a1       	ldd	r24, Y+37	; 0x25
     ebe:	88 23       	and	r24, r24
     ec0:	a1 f0       	breq	.+40     	; 0xeea <USART_init+0x41c>
     ec2:	00 00       	nop
     ec4:	80 e0       	ldi	r24, 0x00	; 0
     ec6:	90 e1       	ldi	r25, 0x10	; 16
     ec8:	fc 01       	movw	r30, r24
     eca:	82 81       	ldd	r24, Z+2	; 0x02
     ecc:	88 2f       	mov	r24, r24
     ece:	90 e0       	ldi	r25, 0x00	; 0
     ed0:	82 70       	andi	r24, 0x02	; 2
     ed2:	99 27       	eor	r25, r25
     ed4:	89 2b       	or	r24, r25
     ed6:	b1 f7       	brne	.-20     	; 0xec4 <USART_init+0x3f6>
     ed8:	8d 8d       	ldd	r24, Y+29	; 0x1d
     eda:	88 2f       	mov	r24, r24
     edc:	90 e0       	ldi	r25, 0x00	; 0
     ede:	84 5f       	subi	r24, 0xF4	; 244
     ee0:	9f 4f       	sbci	r25, 0xFF	; 255
     ee2:	9c 5e       	subi	r25, 0xEC	; 236
     ee4:	fc 01       	movw	r30, r24
     ee6:	80 81       	ld	r24, Z
     ee8:	8a 83       	std	Y+2, r24	; 0x02
     eea:	8e a1       	ldd	r24, Y+38	; 0x26
     eec:	88 23       	and	r24, r24
     eee:	a1 f0       	breq	.+40     	; 0xf18 <USART_init+0x44a>
     ef0:	00 00       	nop
     ef2:	80 e0       	ldi	r24, 0x00	; 0
     ef4:	90 e1       	ldi	r25, 0x10	; 16
     ef6:	fc 01       	movw	r30, r24
     ef8:	82 81       	ldd	r24, Z+2	; 0x02
     efa:	88 2f       	mov	r24, r24
     efc:	90 e0       	ldi	r25, 0x00	; 0
     efe:	82 70       	andi	r24, 0x02	; 2
     f00:	99 27       	eor	r25, r25
     f02:	89 2b       	or	r24, r25
     f04:	b1 f7       	brne	.-20     	; 0xef2 <USART_init+0x424>
     f06:	8d 8d       	ldd	r24, Y+29	; 0x1d
     f08:	88 2f       	mov	r24, r24
     f0a:	90 e0       	ldi	r25, 0x00	; 0
     f0c:	80 5f       	subi	r24, 0xF0	; 240
     f0e:	9f 4f       	sbci	r25, 0xFF	; 255
     f10:	9c 5e       	subi	r25, 0xEC	; 236
     f12:	fc 01       	movw	r30, r24
     f14:	80 81       	ld	r24, Z
     f16:	8b 83       	std	Y+3, r24	; 0x03
     f18:	8b 89       	ldd	r24, Y+19	; 0x13
     f1a:	8f 3f       	cpi	r24, 0xFF	; 255
     f1c:	99 f1       	breq	.+102    	; 0xf84 <USART_init+0x4b6>
     f1e:	8a 89       	ldd	r24, Y+18	; 0x12
     f20:	8f 3f       	cpi	r24, 0xFF	; 255
     f22:	81 f1       	breq	.+96     	; 0xf84 <USART_init+0x4b6>
     f24:	20 e0       	ldi	r18, 0x00	; 0
     f26:	34 e0       	ldi	r19, 0x04	; 4
     f28:	8a 89       	ldd	r24, Y+18	; 0x12
     f2a:	88 2f       	mov	r24, r24
     f2c:	90 e0       	ldi	r25, 0x00	; 0
     f2e:	5c 89       	ldd	r21, Y+20	; 0x14
     f30:	4a 81       	ldd	r20, Y+2	; 0x02
     f32:	54 2b       	or	r21, r20
     f34:	4b 81       	ldd	r20, Y+3	; 0x03
     f36:	54 2b       	or	r21, r20
     f38:	4b 89       	ldd	r20, Y+19	; 0x13
     f3a:	45 23       	and	r20, r21
     f3c:	88 0f       	add	r24, r24
     f3e:	99 1f       	adc	r25, r25
     f40:	82 95       	swap	r24
     f42:	92 95       	swap	r25
     f44:	90 7f       	andi	r25, 0xF0	; 240
     f46:	98 27       	eor	r25, r24
     f48:	80 7f       	andi	r24, 0xF0	; 240
     f4a:	98 27       	eor	r25, r24
     f4c:	82 0f       	add	r24, r18
     f4e:	93 1f       	adc	r25, r19
     f50:	01 96       	adiw	r24, 0x01	; 1
     f52:	fc 01       	movw	r30, r24
     f54:	40 83       	st	Z, r20
     f56:	20 e0       	ldi	r18, 0x00	; 0
     f58:	34 e0       	ldi	r19, 0x04	; 4
     f5a:	8a 89       	ldd	r24, Y+18	; 0x12
     f5c:	88 2f       	mov	r24, r24
     f5e:	90 e0       	ldi	r25, 0x00	; 0
     f60:	5d 89       	ldd	r21, Y+21	; 0x15
     f62:	4b 89       	ldd	r20, Y+19	; 0x13
     f64:	45 23       	and	r20, r21
     f66:	88 0f       	add	r24, r24
     f68:	99 1f       	adc	r25, r25
     f6a:	82 95       	swap	r24
     f6c:	92 95       	swap	r25
     f6e:	90 7f       	andi	r25, 0xF0	; 240
     f70:	98 27       	eor	r25, r24
     f72:	80 7f       	andi	r24, 0xF0	; 240
     f74:	98 27       	eor	r25, r24
     f76:	82 0f       	add	r24, r18
     f78:	93 1f       	adc	r25, r19
     f7a:	02 96       	adiw	r24, 0x02	; 2
     f7c:	fc 01       	movw	r30, r24
     f7e:	40 83       	st	Z, r20
     f80:	19 82       	std	Y+1, r1	; 0x01
     f82:	02 c0       	rjmp	.+4      	; 0xf88 <USART_init+0x4ba>
     f84:	81 e0       	ldi	r24, 0x01	; 1
     f86:	89 83       	std	Y+1, r24	; 0x01
     f88:	89 81       	ldd	r24, Y+1	; 0x01
     f8a:	a7 96       	adiw	r28, 0x27	; 39
     f8c:	cd bf       	out	0x3d, r28	; 61
     f8e:	de bf       	out	0x3e, r29	; 62
     f90:	df 91       	pop	r29
     f92:	cf 91       	pop	r28
     f94:	0f 91       	pop	r16
     f96:	ef 90       	pop	r14
     f98:	cf 90       	pop	r12
     f9a:	af 90       	pop	r10
     f9c:	8f 90       	pop	r8
     f9e:	08 95       	ret

00000fa0 <USART_send_Array>:
     fa0:	cf 93       	push	r28
     fa2:	df 93       	push	r29
     fa4:	a8 2f       	mov	r26, r24
     fa6:	b0 e0       	ldi	r27, 0x00	; 0
     fa8:	fd 01       	movw	r30, r26
     faa:	ee 0f       	add	r30, r30
     fac:	ff 1f       	adc	r31, r31
     fae:	e4 50       	subi	r30, 0x04	; 4
     fb0:	fc 49       	sbci	r31, 0x9C	; 156
     fb2:	c0 81       	ld	r28, Z
     fb4:	d1 81       	ldd	r29, Z+1	; 0x01
     fb6:	41 15       	cp	r20, r1
     fb8:	51 05       	cpc	r21, r1
     fba:	21 f1       	breq	.+72     	; 0x1004 <USART_send_Array+0x64>
     fbc:	22 23       	and	r18, r18
     fbe:	21 f1       	breq	.+72     	; 0x1008 <USART_send_Array+0x68>
     fc0:	ba 01       	movw	r22, r20
     fc2:	83 e2       	ldi	r24, 0x23	; 35
     fc4:	8a 9f       	mul	r24, r26
     fc6:	f0 01       	movw	r30, r0
     fc8:	8b 9f       	mul	r24, r27
     fca:	f0 0d       	add	r31, r0
     fcc:	11 24       	eor	r1, r1
     fce:	e1 59       	subi	r30, 0x91	; 145
     fd0:	f7 4d       	sbci	r31, 0xD7	; 215
     fd2:	80 81       	ld	r24, Z
     fd4:	91 81       	ldd	r25, Z+1	; 0x01
     fd6:	98 17       	cp	r25, r24
     fd8:	80 e0       	ldi	r24, 0x00	; 0
     fda:	09 f0       	breq	.+2      	; 0xfde <USART_send_Array+0x3e>
     fdc:	81 e0       	ldi	r24, 0x01	; 1
     fde:	81 11       	cpse	r24, r1
     fe0:	0b c0       	rjmp	.+22     	; 0xff8 <USART_send_Array+0x58>
     fe2:	da 01       	movw	r26, r20
     fe4:	8d 91       	ld	r24, X+
     fe6:	bd 01       	movw	r22, r26
     fe8:	8a 83       	std	Y+2, r24	; 0x02
     fea:	4f ef       	ldi	r20, 0xFF	; 255
     fec:	42 0f       	add	r20, r18
     fee:	cf 01       	movw	r24, r30
     ff0:	0e 94 de 01 	call	0x3bc	; 0x3bc <FIFO_copy_from_lin>
     ff4:	81 e0       	ldi	r24, 0x01	; 1
     ff6:	09 c0       	rjmp	.+18     	; 0x100a <USART_send_Array+0x6a>
     ff8:	42 2f       	mov	r20, r18
     ffa:	cf 01       	movw	r24, r30
     ffc:	0e 94 de 01 	call	0x3bc	; 0x3bc <FIFO_copy_from_lin>
    1000:	81 e0       	ldi	r24, 0x01	; 1
    1002:	03 c0       	rjmp	.+6      	; 0x100a <USART_send_Array+0x6a>
    1004:	80 e0       	ldi	r24, 0x00	; 0
    1006:	01 c0       	rjmp	.+2      	; 0x100a <USART_send_Array+0x6a>
    1008:	80 e0       	ldi	r24, 0x00	; 0
    100a:	df 91       	pop	r29
    100c:	cf 91       	pop	r28
    100e:	08 95       	ret

00001010 <USART_set_receive_Array_callback_fnc>:
//																			  die Callbackfunktion 
////////////////////////////////////////////////////////////////////////////////////////////////////
void USART_set_receive_Array_callback_fnc(uint8_t USARTnumber, \
	USART_receive_Array_callback_fnc_t USART_receive_Array_callback_in)
{
	if(USART_receive_Array_callback_in != NULL)
    1010:	61 15       	cp	r22, r1
    1012:	71 05       	cpc	r23, r1
    1014:	41 f0       	breq	.+16     	; 0x1026 <USART_set_receive_Array_callback_fnc+0x16>
	{
		USART_receive_Array_callback[USARTnumber] = USART_receive_Array_callback_in;
    1016:	e8 2f       	mov	r30, r24
    1018:	f0 e0       	ldi	r31, 0x00	; 0
    101a:	ee 0f       	add	r30, r30
    101c:	ff 1f       	adc	r31, r31
    101e:	e0 54       	subi	r30, 0x40	; 64
    1020:	f4 4d       	sbci	r31, 0xD4	; 212
    1022:	60 83       	st	Z, r22
    1024:	71 83       	std	Z+1, r23	; 0x01
    1026:	08 95       	ret

00001028 <USART_set_send_Array_callback_fnc>:
//
////////////////////////////////////////////////////////////////////////////////////////////////////
void USART_set_send_Array_callback_fnc(uint8_t USARTnumber, \
	USART_send_Array_callback_fnc_t USART_send_Array_callback_in)
{
	if(USART_send_Array_callback_in != NULL)
    1028:	61 15       	cp	r22, r1
    102a:	71 05       	cpc	r23, r1
    102c:	41 f0       	breq	.+16     	; 0x103e <USART_set_send_Array_callback_fnc+0x16>
	{
		USART_send_Array_callback[USARTnumber] = USART_send_Array_callback_in;
    102e:	e8 2f       	mov	r30, r24
    1030:	f0 e0       	ldi	r31, 0x00	; 0
    1032:	ee 0f       	add	r30, r30
    1034:	ff 1f       	adc	r31, r31
    1036:	e8 53       	subi	r30, 0x38	; 56
    1038:	f4 4d       	sbci	r31, 0xD4	; 212
    103a:	60 83       	st	Z, r22
    103c:	71 83       	std	Z+1, r23	; 0x01
    103e:	08 95       	ret

00001040 <USART_set_Bytes_to_receive>:
//		uint8_t Bytes_to_receive -> Bytes die Empfangen werden sollen. 
//									Maximale Anzahl wird duch den FIFO bestimmt.
////////////////////////////////////////////////////////////////////////////////////////////////////
void USART_set_Bytes_to_receive(uint8_t USARTnumber, uint8_t Bytes_to_receive)
{
	USART_bytes_to_receive[USARTnumber] = Bytes_to_receive;
    1040:	e8 2f       	mov	r30, r24
    1042:	f0 e0       	ldi	r31, 0x00	; 0
    1044:	ec 52       	subi	r30, 0x2C	; 44
    1046:	f4 4d       	sbci	r31, 0xD4	; 212
    1048:	60 83       	st	Z, r22
    104a:	08 95       	ret

0000104c <ioInit>:
 * 
 * 
 * \return void
 */
static void ioInit(){
	PORTD.DIR |= (1<<ERR1);
    104c:	e0 e6       	ldi	r30, 0x60	; 96
    104e:	f4 e0       	ldi	r31, 0x04	; 4
    1050:	80 81       	ld	r24, Z
    1052:	81 60       	ori	r24, 0x01	; 1
    1054:	80 83       	st	Z, r24
	PORTD.PIN0CTRL |= (INPUT_DISABLE<<0);
    1056:	80 89       	ldd	r24, Z+16	; 0x10
    1058:	84 60       	ori	r24, 0x04	; 4
    105a:	80 8b       	std	Z+16, r24	; 0x10
    105c:	08 95       	ret

0000105e <setErr1State>:
 * \param state der Zustand von LED (0:Aus, sonst: Ein)
 * 
 * \return void
 */
static void setErr1State(uint8_t state){
	switch(state){
    105e:	88 23       	and	r24, r24
    1060:	19 f0       	breq	.+6      	; 0x1068 <setErr1State+0xa>
    1062:	81 30       	cpi	r24, 0x01	; 1
    1064:	39 f0       	breq	.+14     	; 0x1074 <setErr1State+0x16>
    1066:	0c c0       	rjmp	.+24     	; 0x1080 <setErr1State+0x22>
		case OFF:
			PORTD.OUT &= ~(1<<ERR1);
    1068:	e0 e6       	ldi	r30, 0x60	; 96
    106a:	f4 e0       	ldi	r31, 0x04	; 4
    106c:	84 81       	ldd	r24, Z+4	; 0x04
    106e:	8e 7f       	andi	r24, 0xFE	; 254
    1070:	84 83       	std	Z+4, r24	; 0x04
			break;
    1072:	08 95       	ret
		case ON:
			PORTD.OUT |= (1<<ERR1);
    1074:	e0 e6       	ldi	r30, 0x60	; 96
    1076:	f4 e0       	ldi	r31, 0x04	; 4
    1078:	84 81       	ldd	r24, Z+4	; 0x04
    107a:	81 60       	ori	r24, 0x01	; 1
    107c:	84 83       	std	Z+4, r24	; 0x04
			break;
    107e:	08 95       	ret
		default:
			PORTD.OUT &= ~(1<<ERR1);
    1080:	e0 e6       	ldi	r30, 0x60	; 96
    1082:	f4 e0       	ldi	r31, 0x04	; 4
    1084:	84 81       	ldd	r24, Z+4	; 0x04
    1086:	8e 7f       	andi	r24, 0xFE	; 254
    1088:	84 83       	std	Z+4, r24	; 0x04
    108a:	08 95       	ret

0000108c <__vector_default>:
#define ON 1
#define OFF 0
#define INPUT_DISABLE 0x04

//verhindern Reset bei falschen Interrupt
EMPTY_INTERRUPT(BADISR_vect)
    108c:	18 95       	reti

0000108e <stringCmp>:
 * \param str2_p der Zeiger zur zweiten Zeichenfolge
 * \param lenStr2 die Länge der zweiten Zeichenfolge
 * 
 * \return uint8_t 1: gleich, 0:ungleich
 */
uint8_t stringCmp(uint8_t* str1_p, uint16_t lenStr1, uint8_t* str2_p, uint16_t lenStr2){
    108e:	cf 93       	push	r28
    1090:	df 93       	push	r29
    1092:	dc 01       	movw	r26, r24
    1094:	ea 01       	movw	r28, r20
	uint8_t result = 1;
	if (lenStr1==lenStr2){
    1096:	62 17       	cp	r22, r18
    1098:	73 07       	cpc	r23, r19
    109a:	79 f0       	breq	.+30     	; 0x10ba <stringCmp+0x2c>
				result = 0;
				break;
			}
		}
	} else{
		result = 0;
    109c:	80 e0       	ldi	r24, 0x00	; 0
    109e:	15 c0       	rjmp	.+42     	; 0x10ca <stringCmp+0x3c>
 */
uint8_t stringCmp(uint8_t* str1_p, uint16_t lenStr1, uint8_t* str2_p, uint16_t lenStr2){
	uint8_t result = 1;
	if (lenStr1==lenStr2){
		for (uint16_t i = 0; i<lenStr1; i++){
			if (str1_p[i]!=str2_p[i]){
    10a0:	fd 01       	movw	r30, r26
    10a2:	e2 0f       	add	r30, r18
    10a4:	f3 1f       	adc	r31, r19
    10a6:	50 81       	ld	r21, Z
    10a8:	fe 01       	movw	r30, r28
    10aa:	e2 0f       	add	r30, r18
    10ac:	f3 1f       	adc	r31, r19
    10ae:	90 81       	ld	r25, Z
    10b0:	59 13       	cpse	r21, r25
    10b2:	0a c0       	rjmp	.+20     	; 0x10c8 <stringCmp+0x3a>
 * \return uint8_t 1: gleich, 0:ungleich
 */
uint8_t stringCmp(uint8_t* str1_p, uint16_t lenStr1, uint8_t* str2_p, uint16_t lenStr2){
	uint8_t result = 1;
	if (lenStr1==lenStr2){
		for (uint16_t i = 0; i<lenStr1; i++){
    10b4:	2f 5f       	subi	r18, 0xFF	; 255
    10b6:	3f 4f       	sbci	r19, 0xFF	; 255
    10b8:	02 c0       	rjmp	.+4      	; 0x10be <stringCmp+0x30>
    10ba:	20 e0       	ldi	r18, 0x00	; 0
    10bc:	30 e0       	ldi	r19, 0x00	; 0
    10be:	26 17       	cp	r18, r22
    10c0:	37 07       	cpc	r19, r23
    10c2:	70 f3       	brcs	.-36     	; 0x10a0 <stringCmp+0x12>
 * \param lenStr2 die Länge der zweiten Zeichenfolge
 * 
 * \return uint8_t 1: gleich, 0:ungleich
 */
uint8_t stringCmp(uint8_t* str1_p, uint16_t lenStr1, uint8_t* str2_p, uint16_t lenStr2){
	uint8_t result = 1;
    10c4:	81 e0       	ldi	r24, 0x01	; 1
    10c6:	01 c0       	rjmp	.+2      	; 0x10ca <stringCmp+0x3c>
	if (lenStr1==lenStr2){
		for (uint16_t i = 0; i<lenStr1; i++){
			if (str1_p[i]!=str2_p[i]){
				result = 0;
    10c8:	80 e0       	ldi	r24, 0x00	; 0
		}
	} else{
		result = 0;
	}
	return result;
}
    10ca:	df 91       	pop	r29
    10cc:	cf 91       	pop	r28
    10ce:	08 95       	ret

000010d0 <main>:

int main(void)
{
    10d0:	cf 93       	push	r28
    10d2:	df 93       	push	r29
    10d4:	cd b7       	in	r28, 0x3d	; 61
    10d6:	de b7       	in	r29, 0x3e	; 62
    10d8:	cc 51       	subi	r28, 0x1C	; 28
    10da:	d2 40       	sbci	r29, 0x02	; 2
    10dc:	cd bf       	out	0x3d, r28	; 61
    10de:	de bf       	out	0x3e, r29	; 62
	/************************************************************************/
	/* Initialisierung aller notwendigen Module                                                                     */
	/************************************************************************/
	//Systemclock init
	uint8_t prescalerClk=1;
	init_Core_CLK(INTERN_CLK,prescalerClk);
    10e0:	61 e0       	ldi	r22, 0x01	; 1
    10e2:	81 e0       	ldi	r24, 0x01	; 1
    10e4:	0e 94 22 01 	call	0x244	; 0x244 <init_Core_CLK>
	//Stopuhr init
	uint8_t timerResolutionUs = 1;
	uint16_t timerPrescaler = 1024;
	timerInit(timerResolutionUs,timerPrescaler);
    10e8:	60 e0       	ldi	r22, 0x00	; 0
    10ea:	74 e0       	ldi	r23, 0x04	; 4
    10ec:	81 e0       	ldi	r24, 0x01	; 1
    10ee:	0e 94 1f 09 	call	0x123e	; 0x123e <timerInit>
	//IO-Pin für Fehleranzeige Init
	
	ioInit();
    10f2:	0e 94 26 08 	call	0x104c	; 0x104c <ioInit>
	//Benutzereinheit init
	usartConfig_t config= {
    10f6:	8b e0       	ldi	r24, 0x0B	; 11
    10f8:	e1 ef       	ldi	r30, 0xF1	; 241
    10fa:	f3 e6       	ldi	r31, 0x63	; 99
    10fc:	de 01       	movw	r26, r28
    10fe:	11 96       	adiw	r26, 0x01	; 1
    1100:	01 90       	ld	r0, Z+
    1102:	0d 92       	st	X+, r0
    1104:	8a 95       	dec	r24
    1106:	e1 f7       	brne	.-8      	; 0x1100 <main+0x30>
		.sync = false,
		.mpcm = false,
		.address = 0,
		.portMux = PORTMUX_USARTx_DEFAULT_gc,
	};
	initUserUnit(config);
    1108:	e9 80       	ldd	r14, Y+1	; 0x01
    110a:	fa 80       	ldd	r15, Y+2	; 0x02
    110c:	0b 81       	ldd	r16, Y+3	; 0x03
    110e:	1c 81       	ldd	r17, Y+4	; 0x04
    1110:	2d 81       	ldd	r18, Y+5	; 0x05
    1112:	3e 81       	ldd	r19, Y+6	; 0x06
    1114:	4f 81       	ldd	r20, Y+7	; 0x07
    1116:	58 85       	ldd	r21, Y+8	; 0x08
    1118:	69 85       	ldd	r22, Y+9	; 0x09
    111a:	7a 85       	ldd	r23, Y+10	; 0x0a
    111c:	8b 85       	ldd	r24, Y+11	; 0x0b
    111e:	0e 94 eb 0b 	call	0x17d6	; 0x17d6 <initUserUnit>
	setErr1State(OFF);
    1122:	80 e0       	ldi	r24, 0x00	; 0
    1124:	0e 94 2f 08 	call	0x105e	; 0x105e <setErr1State>
	//User-Unit and Slave API Handler Init
	usvMonitorHandler_t handler;
	initDev(&handler,usartDataRx,usartDataTx,waitCycle,0xD5);
    1128:	05 ed       	ldi	r16, 0xD5	; 213
    112a:	26 ec       	ldi	r18, 0xC6	; 198
    112c:	39 e0       	ldi	r19, 0x09	; 9
    112e:	43 e2       	ldi	r20, 0x23	; 35
    1130:	5b e0       	ldi	r21, 0x0B	; 11
    1132:	6c e9       	ldi	r22, 0x9C	; 156
    1134:	7b e0       	ldi	r23, 0x0B	; 11
    1136:	ce 01       	movw	r24, r28
    1138:	0c 96       	adiw	r24, 0x0c	; 12
    113a:	0e 94 66 0c 	call	0x18cc	; 0x18cc <initDev>
	sei();//globales Interrupt aktiviert
    113e:	78 94       	sei

#ifdef LED_ERR1_TEST
	setErr1State(ON);
#endif	
	
	volatile uint8_t error1 = NO_ERROR;
    1140:	1c 8a       	std	Y+20, r1	; 0x14
	const uint8_t add = 1;
	uint16_t reg = 0;
	uint16_t rxLen = 0;
	volatile uint8_t output[500] = {0};
    1142:	fe 01       	movw	r30, r28
    1144:	75 96       	adiw	r30, 0x15	; 21
    1146:	84 ef       	ldi	r24, 0xF4	; 244
    1148:	91 e0       	ldi	r25, 0x01	; 1
    114a:	df 01       	movw	r26, r30
    114c:	9c 01       	movw	r18, r24
    114e:	1d 92       	st	X+, r1
    1150:	21 50       	subi	r18, 0x01	; 1
    1152:	30 40       	sbci	r19, 0x00	; 0
    1154:	e1 f7       	brne	.-8      	; 0x114e <main+0x7e>
#endif

#ifdef WRITE_AND_READ_MULTI_REGISTER
#define INPUT_2_LEN 20
	//Multiregister schreiben und lesen
	volatile uint8_t input2[INPUT_2_LEN] = {0};
    1156:	ec 50       	subi	r30, 0x0C	; 12
    1158:	fe 4f       	sbci	r31, 0xFE	; 254
    115a:	84 e1       	ldi	r24, 0x14	; 20
    115c:	df 01       	movw	r26, r30
    115e:	1d 92       	st	X+, r1
    1160:	8a 95       	dec	r24
    1162:	e9 f7       	brne	.-6      	; 0x115e <main+0x8e>
	//memset((uint8_t*)input2,0x14,INPUT_2_LEN);
	for (int i = 0; i<INPUT_2_LEN;i++)
    1164:	80 e0       	ldi	r24, 0x00	; 0
    1166:	90 e0       	ldi	r25, 0x00	; 0
    1168:	08 c0       	rjmp	.+16     	; 0x117a <main+0xaa>
	{
		input2[i] = i;
    116a:	e9 e0       	ldi	r30, 0x09	; 9
    116c:	f2 e0       	ldi	r31, 0x02	; 2
    116e:	ec 0f       	add	r30, r28
    1170:	fd 1f       	adc	r31, r29
    1172:	e8 0f       	add	r30, r24
    1174:	f9 1f       	adc	r31, r25
    1176:	80 83       	st	Z, r24
#ifdef WRITE_AND_READ_MULTI_REGISTER
#define INPUT_2_LEN 20
	//Multiregister schreiben und lesen
	volatile uint8_t input2[INPUT_2_LEN] = {0};
	//memset((uint8_t*)input2,0x14,INPUT_2_LEN);
	for (int i = 0; i<INPUT_2_LEN;i++)
    1178:	01 96       	adiw	r24, 0x01	; 1
    117a:	84 31       	cpi	r24, 0x14	; 20
    117c:	91 05       	cpc	r25, r1
    117e:	ac f3       	brlt	.-22     	; 0x116a <main+0x9a>
	{
		input2[i] = i;
	}
	reg = LIDAR_VALUE_ADD;
	rxLen = 360;
	error1 = setMultiregister(add,reg,&handler,(uint8_t*)input2, rxLen);
    1180:	08 e6       	ldi	r16, 0x68	; 104
    1182:	11 e0       	ldi	r17, 0x01	; 1
    1184:	9e 01       	movw	r18, r28
    1186:	27 5f       	subi	r18, 0xF7	; 247
    1188:	3d 4f       	sbci	r19, 0xFD	; 253
    118a:	ae 01       	movw	r20, r28
    118c:	44 5f       	subi	r20, 0xF4	; 244
    118e:	5f 4f       	sbci	r21, 0xFF	; 255
    1190:	63 e0       	ldi	r22, 0x03	; 3
    1192:	72 e0       	ldi	r23, 0x02	; 2
    1194:	81 e0       	ldi	r24, 0x01	; 1
    1196:	0e 94 82 0e 	call	0x1d04	; 0x1d04 <setMultiregister>
    119a:	8c 8b       	std	Y+20, r24	; 0x14
	if (error1!=NO_ERROR){
    119c:	8c 89       	ldd	r24, Y+20	; 0x14
    119e:	88 23       	and	r24, r24
    11a0:	21 f0       	breq	.+8      	; 0x11aa <main+0xda>
		setErr1State(ON);
    11a2:	81 e0       	ldi	r24, 0x01	; 1
    11a4:	0e 94 2f 08 	call	0x105e	; 0x105e <setErr1State>
    11a8:	03 c0       	rjmp	.+6      	; 0x11b0 <main+0xe0>
	} else {
		setErr1State(OFF);
    11aa:	80 e0       	ldi	r24, 0x00	; 0
    11ac:	0e 94 2f 08 	call	0x105e	; 0x105e <setErr1State>
	}
	error1 = getMultiregister(add,reg,&handler,(uint8_t*)output, rxLen);
    11b0:	08 e6       	ldi	r16, 0x68	; 104
    11b2:	11 e0       	ldi	r17, 0x01	; 1
    11b4:	9e 01       	movw	r18, r28
    11b6:	2b 5e       	subi	r18, 0xEB	; 235
    11b8:	3f 4f       	sbci	r19, 0xFF	; 255
    11ba:	ae 01       	movw	r20, r28
    11bc:	44 5f       	subi	r20, 0xF4	; 244
    11be:	5f 4f       	sbci	r21, 0xFF	; 255
    11c0:	63 e0       	ldi	r22, 0x03	; 3
    11c2:	72 e0       	ldi	r23, 0x02	; 2
    11c4:	81 e0       	ldi	r24, 0x01	; 1
    11c6:	0e 94 84 0c 	call	0x1908	; 0x1908 <getMultiregister>
    11ca:	8c 8b       	std	Y+20, r24	; 0x14
	if (error1!=NO_ERROR){
    11cc:	8c 89       	ldd	r24, Y+20	; 0x14
    11ce:	88 23       	and	r24, r24
    11d0:	21 f0       	breq	.+8      	; 0x11da <main+0x10a>
		setErr1State(ON);
    11d2:	81 e0       	ldi	r24, 0x01	; 1
    11d4:	0e 94 2f 08 	call	0x105e	; 0x105e <setErr1State>
    11d8:	03 c0       	rjmp	.+6      	; 0x11e0 <main+0x110>
	} else {
		setErr1State(OFF);
    11da:	80 e0       	ldi	r24, 0x00	; 0
    11dc:	0e 94 2f 08 	call	0x105e	; 0x105e <setErr1State>
	}
	
	error1 = stringCmp((uint8_t*)input2,rxLen,(uint8_t*)output,rxLen);
    11e0:	28 e6       	ldi	r18, 0x68	; 104
    11e2:	31 e0       	ldi	r19, 0x01	; 1
    11e4:	ae 01       	movw	r20, r28
    11e6:	4b 5e       	subi	r20, 0xEB	; 235
    11e8:	5f 4f       	sbci	r21, 0xFF	; 255
    11ea:	68 e6       	ldi	r22, 0x68	; 104
    11ec:	71 e0       	ldi	r23, 0x01	; 1
    11ee:	ce 01       	movw	r24, r28
    11f0:	87 5f       	subi	r24, 0xF7	; 247
    11f2:	9d 4f       	sbci	r25, 0xFD	; 253
    11f4:	0e 94 47 08 	call	0x108e	; 0x108e <stringCmp>
    11f8:	8c 8b       	std	Y+20, r24	; 0x14
	if (error1==0){
    11fa:	8c 89       	ldd	r24, Y+20	; 0x14
    11fc:	81 11       	cpse	r24, r1
    11fe:	04 c0       	rjmp	.+8      	; 0x1208 <main+0x138>
		setErr1State(ON);
    1200:	81 e0       	ldi	r24, 0x01	; 1
    1202:	0e 94 2f 08 	call	0x105e	; 0x105e <setErr1State>
    1206:	03 c0       	rjmp	.+6      	; 0x120e <main+0x13e>
	} else {
		setErr1State(OFF);
    1208:	80 e0       	ldi	r24, 0x00	; 0
    120a:	0e 94 2f 08 	call	0x105e	; 0x105e <setErr1State>
    120e:	ff cf       	rjmp	.-2      	; 0x120e <main+0x13e>

00001210 <resetAllGenerator>:
		counter[i].lock = 1;
		counter[i].value = us/objTCA.resolutionUs + (us%objTCA.resolutionUs)?1:0;
		objTCA.adr->SINGLE.INTCTRL |= (1<<0);//Overflow-Interrupt wird wieder aktiviert 
		while (counter[i].value);
	}
}
    1210:	80 e0       	ldi	r24, 0x00	; 0
    1212:	12 c0       	rjmp	.+36     	; 0x1238 <resetAllGenerator+0x28>
    1214:	e8 2f       	mov	r30, r24
    1216:	f0 e0       	ldi	r31, 0x00	; 0
    1218:	ee 0f       	add	r30, r30
    121a:	ff 1f       	adc	r31, r31
    121c:	ee 0f       	add	r30, r30
    121e:	ff 1f       	adc	r31, r31
    1220:	ef 51       	subi	r30, 0x1F	; 31
    1222:	f4 4d       	sbci	r31, 0xD4	; 212
    1224:	10 82       	st	Z, r1
    1226:	11 82       	std	Z+1, r1	; 0x01
    1228:	12 82       	std	Z+2, r1	; 0x02
    122a:	93 81       	ldd	r25, Z+3	; 0x03
    122c:	90 78       	andi	r25, 0x80	; 128
    122e:	93 83       	std	Z+3, r25	; 0x03
    1230:	93 81       	ldd	r25, Z+3	; 0x03
    1232:	9f 77       	andi	r25, 0x7F	; 127
    1234:	93 83       	std	Z+3, r25	; 0x03
    1236:	8f 5f       	subi	r24, 0xFF	; 255
    1238:	8a 30       	cpi	r24, 0x0A	; 10
    123a:	60 f3       	brcs	.-40     	; 0x1214 <resetAllGenerator+0x4>
    123c:	08 95       	ret

0000123e <timerInit>:
    123e:	ef 92       	push	r14
    1240:	ff 92       	push	r15
    1242:	0f 93       	push	r16
    1244:	1f 93       	push	r17
    1246:	cf 93       	push	r28
    1248:	c8 2f       	mov	r28, r24
    124a:	8b 01       	movw	r16, r22
    124c:	e0 91 d8 28 	lds	r30, 0x28D8	; 0x8028d8 <objTCA>
    1250:	f0 91 d9 28 	lds	r31, 0x28D9	; 0x8028d9 <objTCA+0x1>
    1254:	82 85       	ldd	r24, Z+10	; 0x0a
    1256:	8e 7f       	andi	r24, 0xFE	; 254
    1258:	82 87       	std	Z+10, r24	; 0x0a
    125a:	0e 94 08 09 	call	0x1210	; 0x1210 <resetAllGenerator>
    125e:	01 15       	cp	r16, r1
    1260:	11 05       	cpc	r17, r1
    1262:	b9 f0       	breq	.+46     	; 0x1292 <timerInit+0x54>
    1264:	03 30       	cpi	r16, 0x03	; 3
    1266:	11 05       	cpc	r17, r1
    1268:	b9 f0       	breq	.+46     	; 0x1298 <timerInit+0x5a>
    126a:	c8 01       	movw	r24, r16
    126c:	05 97       	sbiw	r24, 0x05	; 5
    126e:	83 30       	cpi	r24, 0x03	; 3
    1270:	91 05       	cpc	r25, r1
    1272:	a8 f0       	brcs	.+42     	; 0x129e <timerInit+0x60>
    1274:	04 97       	sbiw	r24, 0x04	; 4
    1276:	87 30       	cpi	r24, 0x07	; 7
    1278:	91 05       	cpc	r25, r1
    127a:	a0 f0       	brcs	.+40     	; 0x12a4 <timerInit+0x66>
    127c:	08 97       	sbiw	r24, 0x08	; 8
    127e:	8f 97       	sbiw	r24, 0x2f	; 47
    1280:	a0 f0       	brcs	.+40     	; 0x12aa <timerInit+0x6c>
    1282:	01 54       	subi	r16, 0x41	; 65
    1284:	11 09       	sbc	r17, r1
    1286:	0f 3b       	cpi	r16, 0xBF	; 191
    1288:	11 05       	cpc	r17, r1
    128a:	90 f4       	brcc	.+36     	; 0x12b0 <timerInit+0x72>
    128c:	20 e0       	ldi	r18, 0x00	; 0
    128e:	31 e0       	ldi	r19, 0x01	; 1
    1290:	11 c0       	rjmp	.+34     	; 0x12b4 <timerInit+0x76>
    1292:	21 e0       	ldi	r18, 0x01	; 1
    1294:	30 e0       	ldi	r19, 0x00	; 0
    1296:	0e c0       	rjmp	.+28     	; 0x12b4 <timerInit+0x76>
    1298:	24 e0       	ldi	r18, 0x04	; 4
    129a:	30 e0       	ldi	r19, 0x00	; 0
    129c:	0b c0       	rjmp	.+22     	; 0x12b4 <timerInit+0x76>
    129e:	28 e0       	ldi	r18, 0x08	; 8
    12a0:	30 e0       	ldi	r19, 0x00	; 0
    12a2:	08 c0       	rjmp	.+16     	; 0x12b4 <timerInit+0x76>
    12a4:	20 e1       	ldi	r18, 0x10	; 16
    12a6:	30 e0       	ldi	r19, 0x00	; 0
    12a8:	05 c0       	rjmp	.+10     	; 0x12b4 <timerInit+0x76>
    12aa:	20 e4       	ldi	r18, 0x40	; 64
    12ac:	30 e0       	ldi	r19, 0x00	; 0
    12ae:	02 c0       	rjmp	.+4      	; 0x12b4 <timerInit+0x76>
    12b0:	20 e0       	ldi	r18, 0x00	; 0
    12b2:	34 e0       	ldi	r19, 0x04	; 4
    12b4:	28 30       	cpi	r18, 0x08	; 8
    12b6:	31 05       	cpc	r19, r1
    12b8:	11 f1       	breq	.+68     	; 0x12fe <timerInit+0xc0>
    12ba:	50 f4       	brcc	.+20     	; 0x12d0 <timerInit+0x92>
    12bc:	22 30       	cpi	r18, 0x02	; 2
    12be:	31 05       	cpc	r19, r1
    12c0:	d1 f0       	breq	.+52     	; 0x12f6 <timerInit+0xb8>
    12c2:	24 30       	cpi	r18, 0x04	; 4
    12c4:	31 05       	cpc	r19, r1
    12c6:	c9 f0       	breq	.+50     	; 0x12fa <timerInit+0xbc>
    12c8:	21 30       	cpi	r18, 0x01	; 1
    12ca:	31 05       	cpc	r19, r1
    12cc:	11 f5       	brne	.+68     	; 0x1312 <timerInit+0xd4>
    12ce:	11 c0       	rjmp	.+34     	; 0x12f2 <timerInit+0xb4>
    12d0:	20 34       	cpi	r18, 0x40	; 64
    12d2:	31 05       	cpc	r19, r1
    12d4:	c1 f0       	breq	.+48     	; 0x1306 <timerInit+0xc8>
    12d6:	20 f4       	brcc	.+8      	; 0x12e0 <timerInit+0xa2>
    12d8:	20 31       	cpi	r18, 0x10	; 16
    12da:	31 05       	cpc	r19, r1
    12dc:	91 f0       	breq	.+36     	; 0x1302 <timerInit+0xc4>
    12de:	19 c0       	rjmp	.+50     	; 0x1312 <timerInit+0xd4>
    12e0:	21 15       	cp	r18, r1
    12e2:	81 e0       	ldi	r24, 0x01	; 1
    12e4:	38 07       	cpc	r19, r24
    12e6:	89 f0       	breq	.+34     	; 0x130a <timerInit+0xcc>
    12e8:	21 15       	cp	r18, r1
    12ea:	84 e0       	ldi	r24, 0x04	; 4
    12ec:	38 07       	cpc	r19, r24
    12ee:	79 f0       	breq	.+30     	; 0x130e <timerInit+0xd0>
    12f0:	10 c0       	rjmp	.+32     	; 0x1312 <timerInit+0xd4>
    12f2:	10 e0       	ldi	r17, 0x00	; 0
    12f4:	0f c0       	rjmp	.+30     	; 0x1314 <timerInit+0xd6>
    12f6:	12 e0       	ldi	r17, 0x02	; 2
    12f8:	0d c0       	rjmp	.+26     	; 0x1314 <timerInit+0xd6>
    12fa:	14 e0       	ldi	r17, 0x04	; 4
    12fc:	0b c0       	rjmp	.+22     	; 0x1314 <timerInit+0xd6>
    12fe:	16 e0       	ldi	r17, 0x06	; 6
    1300:	09 c0       	rjmp	.+18     	; 0x1314 <timerInit+0xd6>
    1302:	18 e0       	ldi	r17, 0x08	; 8
    1304:	07 c0       	rjmp	.+14     	; 0x1314 <timerInit+0xd6>
    1306:	1a e0       	ldi	r17, 0x0A	; 10
    1308:	05 c0       	rjmp	.+10     	; 0x1314 <timerInit+0xd6>
    130a:	1c e0       	ldi	r17, 0x0C	; 12
    130c:	03 c0       	rjmp	.+6      	; 0x1314 <timerInit+0xd6>
    130e:	1e e0       	ldi	r17, 0x0E	; 14
    1310:	01 c0       	rjmp	.+2      	; 0x1314 <timerInit+0xd6>
    1312:	10 e0       	ldi	r17, 0x00	; 0
    1314:	11 60       	ori	r17, 0x01	; 1
    1316:	c0 93 db 28 	sts	0x28DB, r28	; 0x8028db <objTCA+0x3>
    131a:	60 91 bc 2b 	lds	r22, 0x2BBC	; 0x802bbc <__data_end>
    131e:	70 91 bd 2b 	lds	r23, 0x2BBD	; 0x802bbd <__data_end+0x1>
    1322:	80 91 be 2b 	lds	r24, 0x2BBE	; 0x802bbe <__data_end+0x2>
    1326:	90 91 bf 2b 	lds	r25, 0x2BBF	; 0x802bbf <__data_end+0x3>
    132a:	40 e0       	ldi	r20, 0x00	; 0
    132c:	50 e0       	ldi	r21, 0x00	; 0
    132e:	0e 94 72 10 	call	0x20e4	; 0x20e4 <__udivmodsi4>
    1332:	ec 2f       	mov	r30, r28
    1334:	f0 e0       	ldi	r31, 0x00	; 0
    1336:	e2 9f       	mul	r30, r18
    1338:	70 01       	movw	r14, r0
    133a:	e3 9f       	mul	r30, r19
    133c:	f0 0c       	add	r15, r0
    133e:	f2 9f       	mul	r31, r18
    1340:	f0 0c       	add	r15, r0
    1342:	11 24       	eor	r1, r1
    1344:	21 e0       	ldi	r18, 0x01	; 1
    1346:	67 2b       	or	r22, r23
    1348:	68 2b       	or	r22, r24
    134a:	69 2b       	or	r22, r25
    134c:	09 f4       	brne	.+2      	; 0x1350 <timerInit+0x112>
    134e:	20 e0       	ldi	r18, 0x00	; 0
    1350:	e8 ed       	ldi	r30, 0xD8	; 216
    1352:	f8 e2       	ldi	r31, 0x28	; 40
    1354:	a0 81       	ld	r26, Z
    1356:	b1 81       	ldd	r27, Z+1	; 0x01
    1358:	c7 01       	movw	r24, r14
    135a:	82 0f       	add	r24, r18
    135c:	91 1d       	adc	r25, r1
    135e:	96 96       	adiw	r26, 0x26	; 38
    1360:	8d 93       	st	X+, r24
    1362:	9c 93       	st	X, r25
    1364:	97 97       	sbiw	r26, 0x27	; 39
    1366:	aa ed       	ldi	r26, 0xDA	; 218
    1368:	b8 e2       	ldi	r27, 0x28	; 40
    136a:	8c 91       	ld	r24, X
    136c:	81 60       	ori	r24, 0x01	; 1
    136e:	8c 93       	st	X, r24
    1370:	a0 81       	ld	r26, Z
    1372:	b1 81       	ldd	r27, Z+1	; 0x01
    1374:	1c 93       	st	X, r17
    1376:	01 90       	ld	r0, Z+
    1378:	f0 81       	ld	r31, Z
    137a:	e0 2d       	mov	r30, r0
    137c:	81 e0       	ldi	r24, 0x01	; 1
    137e:	82 87       	std	Z+10, r24	; 0x0a
    1380:	cf 91       	pop	r28
    1382:	1f 91       	pop	r17
    1384:	0f 91       	pop	r16
    1386:	ff 90       	pop	r15
    1388:	ef 90       	pop	r14
    138a:	08 95       	ret

0000138c <waitCycle>:
 *
 * \param cycle die erwünschte Verzögerungszeit in Zyklen
 * 
 * \return void
 */
void waitCycle(uint32_t cycle){
    138c:	0f 93       	push	r16
    138e:	1f 93       	push	r17
    1390:	8b 01       	movw	r16, r22
    1392:	9c 01       	movw	r18, r24
	for (uint32_t i = 0; i<cycle*5;i++);
    1394:	40 e0       	ldi	r20, 0x00	; 0
    1396:	50 e0       	ldi	r21, 0x00	; 0
    1398:	ba 01       	movw	r22, r20
    139a:	04 c0       	rjmp	.+8      	; 0x13a4 <waitCycle+0x18>
    139c:	4f 5f       	subi	r20, 0xFF	; 255
    139e:	5f 4f       	sbci	r21, 0xFF	; 255
    13a0:	6f 4f       	sbci	r22, 0xFF	; 255
    13a2:	7f 4f       	sbci	r23, 0xFF	; 255
    13a4:	d9 01       	movw	r26, r18
    13a6:	c8 01       	movw	r24, r16
    13a8:	88 0f       	add	r24, r24
    13aa:	99 1f       	adc	r25, r25
    13ac:	aa 1f       	adc	r26, r26
    13ae:	bb 1f       	adc	r27, r27
    13b0:	88 0f       	add	r24, r24
    13b2:	99 1f       	adc	r25, r25
    13b4:	aa 1f       	adc	r26, r26
    13b6:	bb 1f       	adc	r27, r27
    13b8:	80 0f       	add	r24, r16
    13ba:	91 1f       	adc	r25, r17
    13bc:	a2 1f       	adc	r26, r18
    13be:	b3 1f       	adc	r27, r19
    13c0:	48 17       	cp	r20, r24
    13c2:	59 07       	cpc	r21, r25
    13c4:	6a 07       	cpc	r22, r26
    13c6:	7b 07       	cpc	r23, r27
    13c8:	48 f3       	brcs	.-46     	; 0x139c <waitCycle+0x10>
}
    13ca:	1f 91       	pop	r17
    13cc:	0f 91       	pop	r16
    13ce:	08 95       	ret

000013d0 <__vector_7>:
/**
 * \brief Interrupt-Service-Routine für Overflow-Interrupt von TCA0
 * \detailed beim Stopuhr: Nach einer Zeit von resolutionUs wird der Wert vom Counter dekrementiert
 *  bis zum 0.
 */
ISR(TCA0_OVF_vect){
    13d0:	1f 92       	push	r1
    13d2:	0f 92       	push	r0
    13d4:	0f b6       	in	r0, 0x3f	; 63
    13d6:	0f 92       	push	r0
    13d8:	11 24       	eor	r1, r1
    13da:	2f 93       	push	r18
    13dc:	3f 93       	push	r19
    13de:	4f 93       	push	r20
    13e0:	8f 93       	push	r24
    13e2:	9f 93       	push	r25
    13e4:	af 93       	push	r26
    13e6:	bf 93       	push	r27
    13e8:	ef 93       	push	r30
    13ea:	ff 93       	push	r31
	uint8_t loopMax = NO_OF_SUBTIMER;
	for (int i = 0; i<loopMax;i++){
    13ec:	20 e0       	ldi	r18, 0x00	; 0
    13ee:	30 e0       	ldi	r19, 0x00	; 0
    13f0:	42 c0       	rjmp	.+132    	; 0x1476 <__vector_7+0xa6>
		if (counter[i].lock){
    13f2:	f9 01       	movw	r30, r18
    13f4:	ee 0f       	add	r30, r30
    13f6:	ff 1f       	adc	r31, r31
    13f8:	ee 0f       	add	r30, r30
    13fa:	ff 1f       	adc	r31, r31
    13fc:	ec 51       	subi	r30, 0x1C	; 28
    13fe:	f4 4d       	sbci	r31, 0xD4	; 212
    1400:	80 81       	ld	r24, Z
    1402:	88 23       	and	r24, r24
    1404:	d4 f4       	brge	.+52     	; 0x143a <__vector_7+0x6a>
				counter[i].value--;
    1406:	f9 01       	movw	r30, r18
    1408:	ee 0f       	add	r30, r30
    140a:	ff 1f       	adc	r31, r31
    140c:	ee 0f       	add	r30, r30
    140e:	ff 1f       	adc	r31, r31
    1410:	ef 51       	subi	r30, 0x1F	; 31
    1412:	f4 4d       	sbci	r31, 0xD4	; 212
    1414:	80 81       	ld	r24, Z
    1416:	91 81       	ldd	r25, Z+1	; 0x01
    1418:	a2 81       	ldd	r26, Z+2	; 0x02
    141a:	43 81       	ldd	r20, Z+3	; 0x03
    141c:	b4 2f       	mov	r27, r20
    141e:	bf 77       	andi	r27, 0x7F	; 127
    1420:	01 97       	sbiw	r24, 0x01	; 1
    1422:	a1 09       	sbc	r26, r1
    1424:	b0 48       	sbci	r27, 0x80	; 128
    1426:	bf 77       	andi	r27, 0x7F	; 127
    1428:	80 83       	st	Z, r24
    142a:	91 83       	std	Z+1, r25	; 0x01
    142c:	a2 83       	std	Z+2, r26	; 0x02
    142e:	9b 2f       	mov	r25, r27
    1430:	9f 77       	andi	r25, 0x7F	; 127
    1432:	83 81       	ldd	r24, Z+3	; 0x03
    1434:	80 78       	andi	r24, 0x80	; 128
    1436:	89 2b       	or	r24, r25
    1438:	83 83       	std	Z+3, r24	; 0x03
		}
		if (!counter[i].value){
    143a:	f9 01       	movw	r30, r18
    143c:	ee 0f       	add	r30, r30
    143e:	ff 1f       	adc	r31, r31
    1440:	ee 0f       	add	r30, r30
    1442:	ff 1f       	adc	r31, r31
    1444:	ef 51       	subi	r30, 0x1F	; 31
    1446:	f4 4d       	sbci	r31, 0xD4	; 212
    1448:	80 81       	ld	r24, Z
    144a:	91 81       	ldd	r25, Z+1	; 0x01
    144c:	a2 81       	ldd	r26, Z+2	; 0x02
    144e:	43 81       	ldd	r20, Z+3	; 0x03
    1450:	b4 2f       	mov	r27, r20
    1452:	bf 77       	andi	r27, 0x7F	; 127
    1454:	89 2b       	or	r24, r25
    1456:	8a 2b       	or	r24, r26
    1458:	8b 2b       	or	r24, r27
    145a:	59 f4       	brne	.+22     	; 0x1472 <__vector_7+0xa2>
    145c:	f9 01       	movw	r30, r18
    145e:	ff 27       	eor	r31, r31
 * \param i die Position des Zählers im Array
 * 
 * \return void
 */
static inline void unlockGenerator(uint8_t i){
	counter[i].lock = 0;
    1460:	ee 0f       	add	r30, r30
    1462:	ff 1f       	adc	r31, r31
    1464:	ee 0f       	add	r30, r30
    1466:	ff 1f       	adc	r31, r31
    1468:	ef 51       	subi	r30, 0x1F	; 31
    146a:	f4 4d       	sbci	r31, 0xD4	; 212
    146c:	83 81       	ldd	r24, Z+3	; 0x03
    146e:	8f 77       	andi	r24, 0x7F	; 127
    1470:	83 83       	std	Z+3, r24	; 0x03
 * \detailed beim Stopuhr: Nach einer Zeit von resolutionUs wird der Wert vom Counter dekrementiert
 *  bis zum 0.
 */
ISR(TCA0_OVF_vect){
	uint8_t loopMax = NO_OF_SUBTIMER;
	for (int i = 0; i<loopMax;i++){
    1472:	2f 5f       	subi	r18, 0xFF	; 255
    1474:	3f 4f       	sbci	r19, 0xFF	; 255
    1476:	2a 30       	cpi	r18, 0x0A	; 10
    1478:	31 05       	cpc	r19, r1
    147a:	0c f4       	brge	.+2      	; 0x147e <__vector_7+0xae>
    147c:	ba cf       	rjmp	.-140    	; 0x13f2 <__vector_7+0x22>
		}
		if (!counter[i].value){
			unlockGenerator(i);
		}
	}
	objTCA.adr->SINGLE.INTFLAGS |=  TCA_SINGLE_OVF_bm;//Loeschen von Interrupt-Flag
    147e:	e0 91 d8 28 	lds	r30, 0x28D8	; 0x8028d8 <objTCA>
    1482:	f0 91 d9 28 	lds	r31, 0x28D9	; 0x8028d9 <objTCA+0x1>
    1486:	83 85       	ldd	r24, Z+11	; 0x0b
    1488:	81 60       	ori	r24, 0x01	; 1
    148a:	83 87       	std	Z+11, r24	; 0x0b
}
    148c:	ff 91       	pop	r31
    148e:	ef 91       	pop	r30
    1490:	bf 91       	pop	r27
    1492:	af 91       	pop	r26
    1494:	9f 91       	pop	r25
    1496:	8f 91       	pop	r24
    1498:	4f 91       	pop	r20
    149a:	3f 91       	pop	r19
    149c:	2f 91       	pop	r18
    149e:	0f 90       	pop	r0
    14a0:	0f be       	out	0x3f, r0	; 63
    14a2:	0f 90       	pop	r0
    14a4:	1f 90       	pop	r1
    14a6:	18 95       	reti

000014a8 <usartCallbackTx>:
 * \param max_length die max. frei Plätze in USART-FIFO
 * 
 * \return bool immer true, da es bisher nicht weiter betrachtet wird
 */
static bool usartCallbackTx(uint8_t* adress, uint8_t* data[], uint8_t* length, uint8_t max_length){
	if (uu.txObj.toTxByte == 0){//Wenn keine Daten mehr zu senden
    14a8:	80 91 b3 2b 	lds	r24, 0x2BB3	; 0x802bb3 <uu+0x2d7>
    14ac:	81 11       	cpse	r24, r1
    14ae:	0a c0       	rjmp	.+20     	; 0x14c4 <usartCallbackTx+0x1c>
		uu.statusObj.send = 0;
    14b0:	ea eb       	ldi	r30, 0xBA	; 186
    14b2:	fb e2       	ldi	r31, 0x2B	; 43
    14b4:	80 81       	ld	r24, Z
    14b6:	87 7f       	andi	r24, 0xF7	; 247
    14b8:	80 83       	st	Z, r24
		uu.txObj.strPtr = 0;//Reset des Zeigers vom Buffer
    14ba:	10 92 b4 2b 	sts	0x2BB4, r1	; 0x802bb4 <uu+0x2d8>
    14be:	10 92 b5 2b 	sts	0x2BB5, r1	; 0x802bb5 <uu+0x2d9>
    14c2:	27 c0       	rjmp	.+78     	; 0x1512 <usartCallbackTx+0x6a>
	} else{ //sonst weiter ausfüllen die Daten in USART-FIFO
		*data = (uint8_t*)(&(uu.txObj.txBuffer[uu.txObj.strPtr]));
    14c4:	80 91 b4 2b 	lds	r24, 0x2BB4	; 0x802bb4 <uu+0x2d8>
    14c8:	90 91 b5 2b 	lds	r25, 0x2BB5	; 0x802bb5 <uu+0x2d9>
    14cc:	85 5b       	subi	r24, 0xB5	; 181
    14ce:	95 4d       	sbci	r25, 0xD5	; 213
    14d0:	db 01       	movw	r26, r22
    14d2:	8d 93       	st	X+, r24
    14d4:	9c 93       	st	X, r25
		//max. Bytes gleich die leere Stelle in FIFO
		if (uu.txObj.toTxByte<max_length){
    14d6:	80 91 b3 2b 	lds	r24, 0x2BB3	; 0x802bb3 <uu+0x2d7>
    14da:	82 17       	cp	r24, r18
    14dc:	58 f4       	brcc	.+22     	; 0x14f4 <usartCallbackTx+0x4c>
			*length = (uu.txObj.toTxByte);
    14de:	e3 eb       	ldi	r30, 0xB3	; 179
    14e0:	fb e2       	ldi	r31, 0x2B	; 43
    14e2:	80 81       	ld	r24, Z
    14e4:	da 01       	movw	r26, r20
    14e6:	8c 93       	st	X, r24
			uu.txObj.toTxByte = 0;
    14e8:	10 82       	st	Z, r1
			uu.txObj.strPtr = 0;
    14ea:	10 92 b4 2b 	sts	0x2BB4, r1	; 0x802bb4 <uu+0x2d8>
    14ee:	10 92 b5 2b 	sts	0x2BB5, r1	; 0x802bb5 <uu+0x2d9>
    14f2:	0f c0       	rjmp	.+30     	; 0x1512 <usartCallbackTx+0x6a>
		} else{
			*length = max_length;
    14f4:	fa 01       	movw	r30, r20
    14f6:	20 83       	st	Z, r18
			uu.txObj.toTxByte -= max_length;
    14f8:	e3 eb       	ldi	r30, 0xB3	; 179
    14fa:	fb e2       	ldi	r31, 0x2B	; 43
    14fc:	80 81       	ld	r24, Z
    14fe:	82 1b       	sub	r24, r18
    1500:	80 83       	st	Z, r24
			uu.txObj.strPtr += max_length;
    1502:	e4 eb       	ldi	r30, 0xB4	; 180
    1504:	fb e2       	ldi	r31, 0x2B	; 43
    1506:	80 81       	ld	r24, Z
    1508:	91 81       	ldd	r25, Z+1	; 0x01
    150a:	82 0f       	add	r24, r18
    150c:	91 1d       	adc	r25, r1
    150e:	80 83       	st	Z, r24
    1510:	91 83       	std	Z+1, r25	; 0x01
		}
	}
	return true;
}
    1512:	81 e0       	ldi	r24, 0x01	; 1
    1514:	08 95       	ret

00001516 <waitWithBreak>:
 * \param obj die zu überwachende Variable
 * \param desiredValue der erwünschte Wert
 * 
 * \return uint8_t 0: kein Fehler, die Variable den Wert rechtzeitig erreicht, sonst: nicht
 */
static uint8_t waitWithBreak(uint64_t cycles, uint8_t* obj, uint8_t desiredValue){
    1516:	2f 92       	push	r2
    1518:	3f 92       	push	r3
    151a:	4f 92       	push	r4
    151c:	5f 92       	push	r5
    151e:	6f 92       	push	r6
    1520:	7f 92       	push	r7
    1522:	8f 92       	push	r8
    1524:	9f 92       	push	r9
    1526:	af 92       	push	r10
    1528:	bf 92       	push	r11
    152a:	cf 92       	push	r12
    152c:	df 92       	push	r13
    152e:	ef 92       	push	r14
    1530:	ff 92       	push	r15
    1532:	0f 93       	push	r16
    1534:	1f 93       	push	r17
    1536:	cf 93       	push	r28
    1538:	df 93       	push	r29
    153a:	cd b7       	in	r28, 0x3d	; 61
    153c:	de b7       	in	r29, 0x3e	; 62
    153e:	29 97       	sbiw	r28, 0x09	; 9
    1540:	cd bf       	out	0x3d, r28	; 61
    1542:	de bf       	out	0x3e, r29	; 62
    1544:	32 2e       	mov	r3, r18
    1546:	43 2e       	mov	r4, r19
    1548:	54 2e       	mov	r5, r20
    154a:	65 2e       	mov	r6, r21
    154c:	76 2e       	mov	r7, r22
    154e:	7b 83       	std	Y+3, r23	; 0x03
    1550:	8c 83       	std	Y+4, r24	; 0x04
    1552:	9d 83       	std	Y+5, r25	; 0x05
    1554:	09 83       	std	Y+1, r16	; 0x01
    1556:	1a 83       	std	Y+2, r17	; 0x02
    1558:	8e 2c       	mov	r8, r14
	uint8_t result = NO_ERROR;
	//Betrachtet den Wert von obj in einer bestimmten Zeit (in Anzahl der Schleife)
	for (uint64_t i = 0; i<cycles;i++){
    155a:	1f 82       	std	Y+7, r1	; 0x07
    155c:	1e 82       	std	Y+6, r1	; 0x06
    155e:	b0 e0       	ldi	r27, 0x00	; 0
    1560:	a0 e0       	ldi	r26, 0x00	; 0
    1562:	f0 e0       	ldi	r31, 0x00	; 0
    1564:	e0 e0       	ldi	r30, 0x00	; 0
    1566:	21 2c       	mov	r2, r1
    1568:	91 2c       	mov	r9, r1
    156a:	f8 87       	std	Y+8, r31	; 0x08
    156c:	e9 87       	std	Y+9, r30	; 0x09
    156e:	18 c0       	rjmp	.+48     	; 0x15a0 <waitWithBreak+0x8a>
		if ((*obj)==desiredValue){
    1570:	e9 81       	ldd	r30, Y+1	; 0x01
    1572:	fa 81       	ldd	r31, Y+2	; 0x02
    1574:	80 81       	ld	r24, Z
    1576:	88 15       	cp	r24, r8
    1578:	31 f1       	breq	.+76     	; 0x15c6 <waitWithBreak+0xb0>
 * \return uint8_t 0: kein Fehler, die Variable den Wert rechtzeitig erreicht, sonst: nicht
 */
static uint8_t waitWithBreak(uint64_t cycles, uint8_t* obj, uint8_t desiredValue){
	uint8_t result = NO_ERROR;
	//Betrachtet den Wert von obj in einer bestimmten Zeit (in Anzahl der Schleife)
	for (uint64_t i = 0; i<cycles;i++){
    157a:	2f 81       	ldd	r18, Y+7	; 0x07
    157c:	3e 81       	ldd	r19, Y+6	; 0x06
    157e:	4b 2f       	mov	r20, r27
    1580:	5a 2f       	mov	r21, r26
    1582:	68 85       	ldd	r22, Y+8	; 0x08
    1584:	79 85       	ldd	r23, Y+9	; 0x09
    1586:	82 2d       	mov	r24, r2
    1588:	99 2d       	mov	r25, r9
    158a:	a1 e0       	ldi	r26, 0x01	; 1
    158c:	0e 94 a9 10 	call	0x2152	; 0x2152 <__adddi3_s8>
    1590:	2f 83       	std	Y+7, r18	; 0x07
    1592:	3e 83       	std	Y+6, r19	; 0x06
    1594:	b4 2f       	mov	r27, r20
    1596:	a5 2f       	mov	r26, r21
    1598:	68 87       	std	Y+8, r22	; 0x08
    159a:	79 87       	std	Y+9, r23	; 0x09
    159c:	28 2e       	mov	r2, r24
    159e:	99 2e       	mov	r9, r25
    15a0:	2f 81       	ldd	r18, Y+7	; 0x07
    15a2:	3e 81       	ldd	r19, Y+6	; 0x06
    15a4:	4b 2f       	mov	r20, r27
    15a6:	5a 2f       	mov	r21, r26
    15a8:	68 85       	ldd	r22, Y+8	; 0x08
    15aa:	79 85       	ldd	r23, Y+9	; 0x09
    15ac:	82 2d       	mov	r24, r2
    15ae:	99 2d       	mov	r25, r9
    15b0:	a3 2c       	mov	r10, r3
    15b2:	b4 2c       	mov	r11, r4
    15b4:	c5 2c       	mov	r12, r5
    15b6:	d6 2c       	mov	r13, r6
    15b8:	e7 2c       	mov	r14, r7
    15ba:	fb 80       	ldd	r15, Y+3	; 0x03
    15bc:	0c 81       	ldd	r16, Y+4	; 0x04
    15be:	1d 81       	ldd	r17, Y+5	; 0x05
    15c0:	0e 94 b5 10 	call	0x216a	; 0x216a <__cmpdi2>
    15c4:	a8 f2       	brcs	.-86     	; 0x1570 <waitWithBreak+0x5a>
		if ((*obj)==desiredValue){
			break;
		}
	}
	//Wird es nach der Zeit den Wert nicht erreicht, dann Fehler zurückgegeben
	if((*obj)!=desiredValue){
    15c6:	e9 81       	ldd	r30, Y+1	; 0x01
    15c8:	fa 81       	ldd	r31, Y+2	; 0x02
    15ca:	80 81       	ld	r24, Z
    15cc:	88 12       	cpse	r8, r24
    15ce:	02 c0       	rjmp	.+4      	; 0x15d4 <waitWithBreak+0xbe>
 * \param desiredValue der erwünschte Wert
 * 
 * \return uint8_t 0: kein Fehler, die Variable den Wert rechtzeitig erreicht, sonst: nicht
 */
static uint8_t waitWithBreak(uint64_t cycles, uint8_t* obj, uint8_t desiredValue){
	uint8_t result = NO_ERROR;
    15d0:	80 e0       	ldi	r24, 0x00	; 0
    15d2:	01 c0       	rjmp	.+2      	; 0x15d6 <waitWithBreak+0xc0>
			break;
		}
	}
	//Wird es nach der Zeit den Wert nicht erreicht, dann Fehler zurückgegeben
	if((*obj)!=desiredValue){
		result = TIME_OUT;
    15d4:	87 e0       	ldi	r24, 0x07	; 7
	}
	return result;
}
    15d6:	29 96       	adiw	r28, 0x09	; 9
    15d8:	cd bf       	out	0x3d, r28	; 61
    15da:	de bf       	out	0x3e, r29	; 62
    15dc:	df 91       	pop	r29
    15de:	cf 91       	pop	r28
    15e0:	1f 91       	pop	r17
    15e2:	0f 91       	pop	r16
    15e4:	ff 90       	pop	r15
    15e6:	ef 90       	pop	r14
    15e8:	df 90       	pop	r13
    15ea:	cf 90       	pop	r12
    15ec:	bf 90       	pop	r11
    15ee:	af 90       	pop	r10
    15f0:	9f 90       	pop	r9
    15f2:	8f 90       	pop	r8
    15f4:	7f 90       	pop	r7
    15f6:	6f 90       	pop	r6
    15f8:	5f 90       	pop	r5
    15fa:	4f 90       	pop	r4
    15fc:	3f 90       	pop	r3
    15fe:	2f 90       	pop	r2
    1600:	08 95       	ret

00001602 <usartCallbackRx>:
 * \param data Zeiger zum Datenblock, in dem die Daten aus USART-FIFO gespeichert werden
 * \param length die Länge des obergenannten Datenblockes
 * 
 * \return bool immer true, da es bisher nicht weiter betrachtet wird
 */
static bool usartCallbackRx(uint8_t adress, uint8_t data[], uint8_t length){
    1602:	0f 93       	push	r16
    1604:	1f 93       	push	r17
    1606:	cf 93       	push	r28
    1608:	df 93       	push	r29
	//Empfangen der Daten in USART-FIFO und Kopieren in das Zwischenbuffer
	uu.rxObj.toRxByte -= length;
    160a:	e4 e4       	ldi	r30, 0x44	; 68
    160c:	fa e2       	ldi	r31, 0x2A	; 42
    160e:	80 81       	ld	r24, Z
    1610:	84 1b       	sub	r24, r20
    1612:	80 83       	st	Z, r24
	memcpy((uint8_t*)&(uu.rxObj.rxBuffer[uu.rxObj.strPtr]),data,length);
    1614:	c4 2f       	mov	r28, r20
    1616:	d0 e0       	ldi	r29, 0x00	; 0
    1618:	05 e4       	ldi	r16, 0x45	; 69
    161a:	1a e2       	ldi	r17, 0x2A	; 42
    161c:	f8 01       	movw	r30, r16
    161e:	80 81       	ld	r24, Z
    1620:	91 81       	ldd	r25, Z+1	; 0x01
    1622:	ae 01       	movw	r20, r28
    1624:	84 52       	subi	r24, 0x24	; 36
    1626:	97 4d       	sbci	r25, 0xD7	; 215
    1628:	0e 94 df 11 	call	0x23be	; 0x23be <memcpy>
	uu.rxObj.strPtr += length;
    162c:	f8 01       	movw	r30, r16
    162e:	40 81       	ld	r20, Z
    1630:	51 81       	ldd	r21, Z+1	; 0x01
    1632:	c4 0f       	add	r28, r20
    1634:	d5 1f       	adc	r29, r21
    1636:	c0 83       	st	Z, r28
    1638:	d1 83       	std	Z+1, r29	; 0x01
	return true;
}
    163a:	81 e0       	ldi	r24, 0x01	; 1
    163c:	df 91       	pop	r29
    163e:	cf 91       	pop	r28
    1640:	1f 91       	pop	r17
    1642:	0f 91       	pop	r16
    1644:	08 95       	ret

00001646 <usartDataTx>:
 * \param data die Zeiger zum Datenblock
 * \param length die Länge des Datenblocks
 * 
 * \return uint8_t 0: keinen Fehler, sonst: Fehler
 */
uint8_t usartDataTx(uint8_t* data, uint16_t length){
    1646:	ef 92       	push	r14
    1648:	0f 93       	push	r16
    164a:	1f 93       	push	r17
    164c:	cf 93       	push	r28
    164e:	df 93       	push	r29
    1650:	ac 01       	movw	r20, r24
	uint8_t result = NO_ERROR;
	if(length>uu.txObj.txLenMax){
    1652:	20 91 b6 2b 	lds	r18, 0x2BB6	; 0x802bb6 <uu+0x2da>
    1656:	30 91 b7 2b 	lds	r19, 0x2BB7	; 0x802bb7 <uu+0x2db>
    165a:	26 17       	cp	r18, r22
    165c:	37 07       	cpc	r19, r23
    165e:	08 f4       	brcc	.+2      	; 0x1662 <usartDataTx+0x1c>
    1660:	60 c0       	rjmp	.+192    	; 0x1722 <usartDataTx+0xdc>
		result = DATA_INVALID;
	} else if (data==NULL){
    1662:	89 2b       	or	r24, r25
    1664:	09 f4       	brne	.+2      	; 0x1668 <usartDataTx+0x22>
    1666:	5f c0       	rjmp	.+190    	; 0x1726 <usartDataTx+0xe0>
		result = NULL_POINTER;
	} else if (!uu.statusObj.initState){
    1668:	80 91 ba 2b 	lds	r24, 0x2BBA	; 0x802bba <uu+0x2de>
    166c:	82 ff       	sbrs	r24, 2
    166e:	5d c0       	rjmp	.+186    	; 0x172a <usartDataTx+0xe4>
		result = NO_INIT;
	} else{
		while(uu.txObj.toTxByte!=0);
    1670:	90 91 b3 2b 	lds	r25, 0x2BB3	; 0x802bb3 <uu+0x2d7>
    1674:	91 11       	cpse	r25, r1
    1676:	fc cf       	rjmp	.-8      	; 0x1670 <usartDataTx+0x2a>
    1678:	eb 01       	movw	r28, r22
    167a:	ba 01       	movw	r22, r20
		uu.statusObj.send = 1;
    167c:	ea eb       	ldi	r30, 0xBA	; 186
    167e:	fb e2       	ldi	r31, 0x2B	; 43
    1680:	80 81       	ld	r24, Z
    1682:	88 60       	ori	r24, 0x08	; 8
    1684:	80 83       	st	Z, r24
		uu.txObj.toTxByte = length;
    1686:	c0 93 b3 2b 	sts	0x2BB3, r28	; 0x802bb3 <uu+0x2d7>
		memcpy((uint8_t*)uu.txObj.txBuffer,data,length);
    168a:	ae 01       	movw	r20, r28
    168c:	8b e4       	ldi	r24, 0x4B	; 75
    168e:	9a e2       	ldi	r25, 0x2A	; 42
    1690:	0e 94 df 11 	call	0x23be	; 0x23be <memcpy>
		if (length<=uu.txObj.usartFIFOMax){
    1694:	20 91 b8 2b 	lds	r18, 0x2BB8	; 0x802bb8 <uu+0x2dc>
    1698:	30 91 b9 2b 	lds	r19, 0x2BB9	; 0x802bb9 <uu+0x2dd>
    169c:	2c 17       	cp	r18, r28
    169e:	3d 07       	cpc	r19, r29
    16a0:	a0 f0       	brcs	.+40     	; 0x16ca <usartDataTx+0x84>
			uu.txObj.toTxByte = 0;
    16a2:	10 92 b3 2b 	sts	0x2BB3, r1	; 0x802bb3 <uu+0x2d7>
			uu.txObj.strPtr += length;
    16a6:	e4 eb       	ldi	r30, 0xB4	; 180
    16a8:	fb e2       	ldi	r31, 0x2B	; 43
    16aa:	80 81       	ld	r24, Z
    16ac:	91 81       	ldd	r25, Z+1	; 0x01
    16ae:	8c 0f       	add	r24, r28
    16b0:	9d 1f       	adc	r25, r29
    16b2:	80 83       	st	Z, r24
    16b4:	91 83       	std	Z+1, r25	; 0x01
			USART_send_Array(uu.statusObj.usart, 0, (uint8_t*)(uu.txObj.txBuffer), length);
    16b6:	80 91 ba 2b 	lds	r24, 0x2BBA	; 0x802bba <uu+0x2de>
    16ba:	2c 2f       	mov	r18, r28
    16bc:	4b e4       	ldi	r20, 0x4B	; 75
    16be:	5a e2       	ldi	r21, 0x2A	; 42
    16c0:	60 e0       	ldi	r22, 0x00	; 0
    16c2:	83 70       	andi	r24, 0x03	; 3
    16c4:	0e 94 d0 07 	call	0xfa0	; 0xfa0 <USART_send_Array>
    16c8:	15 c0       	rjmp	.+42     	; 0x16f4 <usartDataTx+0xae>
		} else{
			uu.txObj.toTxByte -= uu.txObj.usartFIFOMax;
    16ca:	e3 eb       	ldi	r30, 0xB3	; 179
    16cc:	fb e2       	ldi	r31, 0x2B	; 43
    16ce:	80 81       	ld	r24, Z
    16d0:	82 1b       	sub	r24, r18
    16d2:	80 83       	st	Z, r24
			uu.txObj.strPtr += uu.txObj.usartFIFOMax;
    16d4:	e4 eb       	ldi	r30, 0xB4	; 180
    16d6:	fb e2       	ldi	r31, 0x2B	; 43
    16d8:	80 81       	ld	r24, Z
    16da:	91 81       	ldd	r25, Z+1	; 0x01
    16dc:	82 0f       	add	r24, r18
    16de:	93 1f       	adc	r25, r19
    16e0:	80 83       	st	Z, r24
    16e2:	91 83       	std	Z+1, r25	; 0x01
			USART_send_Array(uu.statusObj.usart, 0, (uint8_t*)(uu.txObj.txBuffer), uu.txObj.usartFIFOMax);
    16e4:	80 91 ba 2b 	lds	r24, 0x2BBA	; 0x802bba <uu+0x2de>
    16e8:	4b e4       	ldi	r20, 0x4B	; 75
    16ea:	5a e2       	ldi	r21, 0x2A	; 42
    16ec:	60 e0       	ldi	r22, 0x00	; 0
    16ee:	83 70       	andi	r24, 0x03	; 3
    16f0:	0e 94 d0 07 	call	0xfa0	; 0xfa0 <USART_send_Array>
		}
		result = waitWithBreak(BYTE_RECEIVE_TIME_US*length*5000,(uint8_t*)&(uu.txObj.toTxByte),0);
    16f4:	20 e2       	ldi	r18, 0x20	; 32
    16f6:	31 ea       	ldi	r19, 0xA1	; 161
    16f8:	c2 9f       	mul	r28, r18
    16fa:	c0 01       	movw	r24, r0
    16fc:	c3 9f       	mul	r28, r19
    16fe:	90 0d       	add	r25, r0
    1700:	d2 9f       	mul	r29, r18
    1702:	90 0d       	add	r25, r0
    1704:	11 24       	eor	r1, r1
    1706:	e1 2c       	mov	r14, r1
    1708:	03 eb       	ldi	r16, 0xB3	; 179
    170a:	1b e2       	ldi	r17, 0x2B	; 43
    170c:	28 2f       	mov	r18, r24
    170e:	39 2f       	mov	r19, r25
    1710:	40 e0       	ldi	r20, 0x00	; 0
    1712:	50 e0       	ldi	r21, 0x00	; 0
    1714:	60 e0       	ldi	r22, 0x00	; 0
    1716:	70 e0       	ldi	r23, 0x00	; 0
    1718:	80 e0       	ldi	r24, 0x00	; 0
    171a:	90 e0       	ldi	r25, 0x00	; 0
    171c:	0e 94 8b 0a 	call	0x1516	; 0x1516 <waitWithBreak>
    1720:	05 c0       	rjmp	.+10     	; 0x172c <usartDataTx+0xe6>
 * \return uint8_t 0: keinen Fehler, sonst: Fehler
 */
uint8_t usartDataTx(uint8_t* data, uint16_t length){
	uint8_t result = NO_ERROR;
	if(length>uu.txObj.txLenMax){
		result = DATA_INVALID;
    1722:	84 e0       	ldi	r24, 0x04	; 4
    1724:	03 c0       	rjmp	.+6      	; 0x172c <usartDataTx+0xe6>
	} else if (data==NULL){
		result = NULL_POINTER;
    1726:	81 e0       	ldi	r24, 0x01	; 1
    1728:	01 c0       	rjmp	.+2      	; 0x172c <usartDataTx+0xe6>
	} else if (!uu.statusObj.initState){
		result = NO_INIT;
    172a:	86 e0       	ldi	r24, 0x06	; 6
			USART_send_Array(uu.statusObj.usart, 0, (uint8_t*)(uu.txObj.txBuffer), uu.txObj.usartFIFOMax);
		}
		result = waitWithBreak(BYTE_RECEIVE_TIME_US*length*5000,(uint8_t*)&(uu.txObj.toTxByte),0);
	}
	return result;
}
    172c:	df 91       	pop	r29
    172e:	cf 91       	pop	r28
    1730:	1f 91       	pop	r17
    1732:	0f 91       	pop	r16
    1734:	ef 90       	pop	r14
    1736:	08 95       	ret

00001738 <usartDataRx>:
 * \param data der Zeiger zum Speicherbuffer
 * \param length die Länge der Speicherbuffer
 * 
 * \return uint8_t 0: kein Fehler, sonst Fehler
 */
uint8_t usartDataRx(uint8_t* data, uint16_t length){
    1738:	cf 92       	push	r12
    173a:	df 92       	push	r13
    173c:	ef 92       	push	r14
    173e:	0f 93       	push	r16
    1740:	1f 93       	push	r17
    1742:	cf 93       	push	r28
    1744:	df 93       	push	r29
	uint8_t result = NO_ERROR;
	if (data==NULL){
    1746:	00 97       	sbiw	r24, 0x00	; 0
    1748:	c1 f1       	breq	.+112    	; 0x17ba <usartDataRx+0x82>
		result = NULL_POINTER;
	} else if ((length>(uu.rxObj.rxLenMax))||(length==0)){
    174a:	20 91 47 2a 	lds	r18, 0x2A47	; 0x802a47 <uu+0x16b>
    174e:	30 91 48 2a 	lds	r19, 0x2A48	; 0x802a48 <uu+0x16c>
    1752:	26 17       	cp	r18, r22
    1754:	37 07       	cpc	r19, r23
    1756:	98 f1       	brcs	.+102    	; 0x17be <usartDataRx+0x86>
    1758:	61 15       	cp	r22, r1
    175a:	71 05       	cpc	r23, r1
    175c:	91 f1       	breq	.+100    	; 0x17c2 <usartDataRx+0x8a>
    175e:	eb 01       	movw	r28, r22
    1760:	6c 01       	movw	r12, r24
		result = DATA_INVALID;
	} else{
		uint8_t usartNo = uu.statusObj.usart;
    1762:	80 91 ba 2b 	lds	r24, 0x2BBA	; 0x802bba <uu+0x2de>
		uu.rxObj.toRxByte = length;
    1766:	60 93 44 2a 	sts	0x2A44, r22	; 0x802a44 <uu+0x168>
		USART_set_Bytes_to_receive(usartNo,length);
    176a:	6c 2f       	mov	r22, r28
    176c:	83 70       	andi	r24, 0x03	; 3
    176e:	0e 94 20 08 	call	0x1040	; 0x1040 <USART_set_Bytes_to_receive>
		uint8_t checkTimeout = waitWithBreak(BYTE_RECEIVE_TIME_US*length*5000,(uint8_t*)&(uu.rxObj.toRxByte),0);//magic number:Anzahl der Zyklen pro sekunden
    1772:	80 e2       	ldi	r24, 0x20	; 32
    1774:	91 ea       	ldi	r25, 0xA1	; 161
    1776:	c8 9f       	mul	r28, r24
    1778:	a0 01       	movw	r20, r0
    177a:	c9 9f       	mul	r28, r25
    177c:	50 0d       	add	r21, r0
    177e:	d8 9f       	mul	r29, r24
    1780:	50 0d       	add	r21, r0
    1782:	11 24       	eor	r1, r1
    1784:	e1 2c       	mov	r14, r1
    1786:	04 e4       	ldi	r16, 0x44	; 68
    1788:	1a e2       	ldi	r17, 0x2A	; 42
    178a:	24 2f       	mov	r18, r20
    178c:	35 2f       	mov	r19, r21
    178e:	40 e0       	ldi	r20, 0x00	; 0
    1790:	50 e0       	ldi	r21, 0x00	; 0
    1792:	60 e0       	ldi	r22, 0x00	; 0
    1794:	70 e0       	ldi	r23, 0x00	; 0
    1796:	80 e0       	ldi	r24, 0x00	; 0
    1798:	90 e0       	ldi	r25, 0x00	; 0
    179a:	0e 94 8b 0a 	call	0x1516	; 0x1516 <waitWithBreak>
    179e:	18 2f       	mov	r17, r24
		if (!checkTimeout){
    17a0:	81 11       	cpse	r24, r1
    17a2:	06 c0       	rjmp	.+12     	; 0x17b0 <usartDataRx+0x78>
			memcpy((uint8_t*)data,(uint8_t*)uu.rxObj.rxBuffer,length);
    17a4:	ae 01       	movw	r20, r28
    17a6:	6c ed       	ldi	r22, 0xDC	; 220
    17a8:	78 e2       	ldi	r23, 0x28	; 40
    17aa:	c6 01       	movw	r24, r12
    17ac:	0e 94 df 11 	call	0x23be	; 0x23be <memcpy>
		} else{
			result = checkTimeout;
		}
		uu.rxObj.strPtr = 0;
    17b0:	10 92 45 2a 	sts	0x2A45, r1	; 0x802a45 <uu+0x169>
    17b4:	10 92 46 2a 	sts	0x2A46, r1	; 0x802a46 <uu+0x16a>
    17b8:	05 c0       	rjmp	.+10     	; 0x17c4 <usartDataRx+0x8c>
 * \return uint8_t 0: kein Fehler, sonst Fehler
 */
uint8_t usartDataRx(uint8_t* data, uint16_t length){
	uint8_t result = NO_ERROR;
	if (data==NULL){
		result = NULL_POINTER;
    17ba:	11 e0       	ldi	r17, 0x01	; 1
    17bc:	03 c0       	rjmp	.+6      	; 0x17c4 <usartDataRx+0x8c>
	} else if ((length>(uu.rxObj.rxLenMax))||(length==0)){
		result = DATA_INVALID;
    17be:	14 e0       	ldi	r17, 0x04	; 4
    17c0:	01 c0       	rjmp	.+2      	; 0x17c4 <usartDataRx+0x8c>
    17c2:	14 e0       	ldi	r17, 0x04	; 4
			result = checkTimeout;
		}
		uu.rxObj.strPtr = 0;
	}
	return result;
}
    17c4:	81 2f       	mov	r24, r17
    17c6:	df 91       	pop	r29
    17c8:	cf 91       	pop	r28
    17ca:	1f 91       	pop	r17
    17cc:	0f 91       	pop	r16
    17ce:	ef 90       	pop	r14
    17d0:	df 90       	pop	r13
    17d2:	cf 90       	pop	r12
    17d4:	08 95       	ret

000017d6 <initUserUnit>:
 * 
 * \param config die Struktur mit der Konfigurationsinformation (für USART)
 * 
 * \return uint8_t 0: kein Fehler, sonst: Fehler
 */
uint8_t initUserUnit(usartConfig_t config){
    17d6:	8f 92       	push	r8
    17d8:	af 92       	push	r10
    17da:	cf 92       	push	r12
    17dc:	ef 92       	push	r14
    17de:	ff 92       	push	r15
    17e0:	0f 93       	push	r16
    17e2:	1f 93       	push	r17
    17e4:	cf 93       	push	r28
    17e6:	df 93       	push	r29
    17e8:	cd b7       	in	r28, 0x3d	; 61
    17ea:	de b7       	in	r29, 0x3e	; 62
    17ec:	2c 97       	sbiw	r28, 0x0c	; 12
    17ee:	cd bf       	out	0x3d, r28	; 61
    17f0:	de bf       	out	0x3e, r29	; 62
    17f2:	9e 2d       	mov	r25, r14
    17f4:	ea 82       	std	Y+2, r14	; 0x02
    17f6:	fb 82       	std	Y+3, r15	; 0x03
    17f8:	0c 83       	std	Y+4, r16	; 0x04
    17fa:	1d 83       	std	Y+5, r17	; 0x05
    17fc:	2e 83       	std	Y+6, r18	; 0x06
    17fe:	23 2f       	mov	r18, r19
    1800:	3f 83       	std	Y+7, r19	; 0x07
    1802:	04 2f       	mov	r16, r20
    1804:	48 87       	std	Y+8, r20	; 0x08
    1806:	e5 2e       	mov	r14, r21
    1808:	59 87       	std	Y+9, r21	; 0x09
    180a:	6a 87       	std	Y+10, r22	; 0x0a
    180c:	7b 87       	std	Y+11, r23	; 0x0b
    180e:	8c 87       	std	Y+12, r24	; 0x0c
	uint8_t result = NO_ERROR;
	volatile uint8_t usartInit = USART_init(config.usartNo,config.baudrate, config.usartChSize, config.parity, \
									config.stopbit, config.sync, config.mpcm,config.address, config.portMux);
    1810:	83 70       	andi	r24, 0x03	; 3
    1812:	61 fb       	bst	r22, 1
    1814:	aa 24       	eor	r10, r10
    1816:	a0 f8       	bld	r10, 0
    1818:	60 fb       	bst	r22, 0
    181a:	cc 24       	eor	r12, r12
    181c:	c0 f8       	bld	r12, 0
 * 
 * \return uint8_t 0: kein Fehler, sonst: Fehler
 */
uint8_t initUserUnit(usartConfig_t config){
	uint8_t result = NO_ERROR;
	volatile uint8_t usartInit = USART_init(config.usartNo,config.baudrate, config.usartChSize, config.parity, \
    181e:	19 2f       	mov	r17, r25
    1820:	13 70       	andi	r17, 0x03	; 3
    1822:	4b 81       	ldd	r20, Y+3	; 0x03
    1824:	5c 81       	ldd	r21, Y+4	; 0x04
    1826:	6d 81       	ldd	r22, Y+5	; 0x05
    1828:	7e 81       	ldd	r23, Y+6	; 0x06
    182a:	8f 93       	push	r24
    182c:	8b 84       	ldd	r8, Y+11	; 0x0b
    182e:	81 2f       	mov	r24, r17
    1830:	0e 94 67 05 	call	0xace	; 0xace <USART_init>
    1834:	89 83       	std	Y+1, r24	; 0x01
									config.stopbit, config.sync, config.mpcm,config.address, config.portMux);
	uu.statusObj.usart = config.usartNo;
    1836:	ea eb       	ldi	r30, 0xBA	; 186
    1838:	fb e2       	ldi	r31, 0x2B	; 43
    183a:	80 81       	ld	r24, Z
    183c:	8c 7f       	andi	r24, 0xFC	; 252
    183e:	81 2b       	or	r24, r17
    1840:	80 83       	st	Z, r24
	uu.statusObj.initState = (!usartInit)?1:0;
    1842:	89 81       	ldd	r24, Y+1	; 0x01
    1844:	91 e0       	ldi	r25, 0x01	; 1
    1846:	0f 90       	pop	r0
    1848:	81 11       	cpse	r24, r1
    184a:	90 e0       	ldi	r25, 0x00	; 0
    184c:	ea eb       	ldi	r30, 0xBA	; 186
    184e:	fb e2       	ldi	r31, 0x2B	; 43
    1850:	80 81       	ld	r24, Z
    1852:	90 fb       	bst	r25, 0
    1854:	82 f9       	bld	r24, 2
    1856:	80 83       	st	Z, r24
	USART_set_send_Array_callback_fnc(config.usartNo,&usartCallbackTx);
    1858:	64 e5       	ldi	r22, 0x54	; 84
    185a:	7a e0       	ldi	r23, 0x0A	; 10
    185c:	81 2f       	mov	r24, r17
    185e:	0e 94 14 08 	call	0x1028	; 0x1028 <USART_set_send_Array_callback_fnc>
	USART_set_receive_Array_callback_fnc(config.usartNo,&usartCallbackRx);
    1862:	61 e0       	ldi	r22, 0x01	; 1
    1864:	7b e0       	ldi	r23, 0x0B	; 11
    1866:	81 2f       	mov	r24, r17
    1868:	0e 94 08 08 	call	0x1010	; 0x1010 <USART_set_receive_Array_callback_fnc>
	result = usartInit?NO_ERROR:PROCESS_FAIL;
    186c:	89 81       	ldd	r24, Y+1	; 0x01
    186e:	88 23       	and	r24, r24
    1870:	11 f0       	breq	.+4      	; 0x1876 <__DATA_REGION_LENGTH__+0x76>
    1872:	80 e0       	ldi	r24, 0x00	; 0
    1874:	01 c0       	rjmp	.+2      	; 0x1878 <__DATA_REGION_LENGTH__+0x78>
    1876:	85 e0       	ldi	r24, 0x05	; 5
	return result;
}
    1878:	2c 96       	adiw	r28, 0x0c	; 12
    187a:	cd bf       	out	0x3d, r28	; 61
    187c:	de bf       	out	0x3e, r29	; 62
    187e:	df 91       	pop	r29
    1880:	cf 91       	pop	r28
    1882:	1f 91       	pop	r17
    1884:	0f 91       	pop	r16
    1886:	ff 90       	pop	r15
    1888:	ef 90       	pop	r14
    188a:	cf 90       	pop	r12
    188c:	af 90       	pop	r10
    188e:	8f 90       	pop	r8
    1890:	08 95       	ret

00001892 <crc8Checksum>:
		} else{
			result = DATA_INVALID;
		}
	}
	return result;
}
    1892:	cf 93       	push	r28
    1894:	df 93       	push	r29
    1896:	fc 01       	movw	r30, r24
    1898:	80 e0       	ldi	r24, 0x00	; 0
    189a:	11 c0       	rjmp	.+34     	; 0x18be <crc8Checksum+0x2c>
    189c:	ef 01       	movw	r28, r30
    189e:	21 96       	adiw	r28, 0x01	; 1
    18a0:	20 81       	ld	r18, Z
    18a2:	98 e0       	ldi	r25, 0x08	; 8
    18a4:	08 c0       	rjmp	.+16     	; 0x18b6 <crc8Checksum+0x24>
    18a6:	38 2f       	mov	r19, r24
    18a8:	32 27       	eor	r19, r18
    18aa:	88 0f       	add	r24, r24
    18ac:	33 23       	and	r19, r19
    18ae:	0c f4       	brge	.+2      	; 0x18b2 <crc8Checksum+0x20>
    18b0:	84 27       	eor	r24, r20
    18b2:	22 0f       	add	r18, r18
    18b4:	91 50       	subi	r25, 0x01	; 1
    18b6:	91 11       	cpse	r25, r1
    18b8:	f6 cf       	rjmp	.-20     	; 0x18a6 <crc8Checksum+0x14>
    18ba:	bd 01       	movw	r22, r26
    18bc:	fe 01       	movw	r30, r28
    18be:	db 01       	movw	r26, r22
    18c0:	11 97       	sbiw	r26, 0x01	; 1
    18c2:	67 2b       	or	r22, r23
    18c4:	59 f7       	brne	.-42     	; 0x189c <crc8Checksum+0xa>
    18c6:	df 91       	pop	r29
    18c8:	cf 91       	pop	r28
    18ca:	08 95       	ret

000018cc <initDev>:
    18cc:	0f 93       	push	r16
    18ce:	fc 01       	movw	r30, r24
    18d0:	61 15       	cp	r22, r1
    18d2:	71 05       	cpc	r23, r1
    18d4:	91 f0       	breq	.+36     	; 0x18fa <initDev+0x2e>
    18d6:	41 15       	cp	r20, r1
    18d8:	51 05       	cpc	r21, r1
    18da:	89 f0       	breq	.+34     	; 0x18fe <initDev+0x32>
    18dc:	21 15       	cp	r18, r1
    18de:	31 05       	cpc	r19, r1
    18e0:	81 f0       	breq	.+32     	; 0x1902 <initDev+0x36>
    18e2:	60 83       	st	Z, r22
    18e4:	71 83       	std	Z+1, r23	; 0x01
    18e6:	42 83       	std	Z+2, r20	; 0x02
    18e8:	53 83       	std	Z+3, r21	; 0x03
    18ea:	24 83       	std	Z+4, r18	; 0x04
    18ec:	35 83       	std	Z+5, r19	; 0x05
    18ee:	07 83       	std	Z+7, r16	; 0x07
    18f0:	86 81       	ldd	r24, Z+6	; 0x06
    18f2:	81 60       	ori	r24, 0x01	; 1
    18f4:	86 83       	std	Z+6, r24	; 0x06
    18f6:	80 e0       	ldi	r24, 0x00	; 0
    18f8:	05 c0       	rjmp	.+10     	; 0x1904 <initDev+0x38>
    18fa:	81 e0       	ldi	r24, 0x01	; 1
    18fc:	03 c0       	rjmp	.+6      	; 0x1904 <initDev+0x38>
    18fe:	81 e0       	ldi	r24, 0x01	; 1
    1900:	01 c0       	rjmp	.+2      	; 0x1904 <initDev+0x38>
    1902:	81 e0       	ldi	r24, 0x01	; 1
    1904:	0f 91       	pop	r16
    1906:	08 95       	ret

00001908 <getMultiregister>:
 * \param output_p das Buffer zur Ausgabe
 * \param outputLen die Länge der Ausgabebuffer
 * 
 * \return uint8_t 0: kein Fehler, sonst: Fehler
 */
uint8_t getMultiregister(uint8_t add, uint16_t reg, usvMonitorHandler_t* dev_p, uint8_t* output_p, uint16_t outputLen){
    1908:	2f 92       	push	r2
    190a:	3f 92       	push	r3
    190c:	4f 92       	push	r4
    190e:	5f 92       	push	r5
    1910:	6f 92       	push	r6
    1912:	7f 92       	push	r7
    1914:	8f 92       	push	r8
    1916:	9f 92       	push	r9
    1918:	af 92       	push	r10
    191a:	bf 92       	push	r11
    191c:	cf 92       	push	r12
    191e:	df 92       	push	r13
    1920:	ef 92       	push	r14
    1922:	ff 92       	push	r15
    1924:	0f 93       	push	r16
    1926:	1f 93       	push	r17
    1928:	cf 93       	push	r28
    192a:	df 93       	push	r29
    192c:	cd b7       	in	r28, 0x3d	; 61
    192e:	de b7       	in	r29, 0x3e	; 62
    1930:	c0 5a       	subi	r28, 0xA0	; 160
    1932:	d1 40       	sbci	r29, 0x01	; 1
    1934:	cd bf       	out	0x3d, r28	; 61
    1936:	de bf       	out	0x3e, r29	; 62
    1938:	b8 2e       	mov	r11, r24
    193a:	69 01       	movw	r12, r18
	//TODO zu testen
	uint8_t result = NO_ERROR;
	if((dev_p==NULL)||(output_p==NULL)){
    193c:	41 15       	cp	r20, r1
    193e:	51 05       	cpc	r21, r1
    1940:	09 f4       	brne	.+2      	; 0x1944 <getMultiregister+0x3c>
    1942:	b6 c1       	rjmp	.+876    	; 0x1cb0 <getMultiregister+0x3a8>
    1944:	23 2b       	or	r18, r19
    1946:	09 f4       	brne	.+2      	; 0x194a <getMultiregister+0x42>
    1948:	b6 c1       	rjmp	.+876    	; 0x1cb6 <getMultiregister+0x3ae>
		result = NULL_POINTER;
	} else if (dev_p->initState==0)
    194a:	da 01       	movw	r26, r20
    194c:	16 96       	adiw	r26, 0x06	; 6
    194e:	8c 91       	ld	r24, X
    1950:	80 ff       	sbrs	r24, 0
    1952:	b4 c1       	rjmp	.+872    	; 0x1cbc <getMultiregister+0x3b4>
    1954:	80 e0       	ldi	r24, 0x00	; 0
    1956:	13 c0       	rjmp	.+38     	; 0x197e <getMultiregister+0x76>
 */
static inline int8_t searchReg(uint16_t reg){
	int8_t result = -1;
	for (uint8_t i = 0;i<sizeof(regSet)/sizeof(slaveReg_t);i++)
	{
		if (regSet[i].add == reg){
    1958:	e8 2f       	mov	r30, r24
    195a:	f0 e0       	ldi	r31, 0x00	; 0
    195c:	9f 01       	movw	r18, r30
    195e:	22 0f       	add	r18, r18
    1960:	33 1f       	adc	r19, r19
    1962:	e2 0f       	add	r30, r18
    1964:	f3 1f       	adc	r31, r19
    1966:	ec 5f       	subi	r30, 0xFC	; 252
    1968:	fb 49       	sbci	r31, 0x9B	; 155
    196a:	91 81       	ldd	r25, Z+1	; 0x01
    196c:	20 81       	ld	r18, Z
    196e:	39 2f       	mov	r19, r25
    1970:	3f 70       	andi	r19, 0x0F	; 15
    1972:	62 17       	cp	r22, r18
    1974:	73 07       	cpc	r23, r19
    1976:	11 f4       	brne	.+4      	; 0x197c <getMultiregister+0x74>
			result = i;
    1978:	78 2e       	mov	r7, r24
    197a:	05 c0       	rjmp	.+10     	; 0x1986 <getMultiregister+0x7e>
 * 
 * \return int8_t -1: kein gefunden, sonst: die Position in der Liste
 */
static inline int8_t searchReg(uint16_t reg){
	int8_t result = -1;
	for (uint8_t i = 0;i<sizeof(regSet)/sizeof(slaveReg_t);i++)
    197c:	8f 5f       	subi	r24, 0xFF	; 255
    197e:	83 31       	cpi	r24, 0x13	; 19
    1980:	58 f3       	brcs	.-42     	; 0x1958 <getMultiregister+0x50>
 * \param reg die Adresse des Registers
 * 
 * \return int8_t -1: kein gefunden, sonst: die Position in der Liste
 */
static inline int8_t searchReg(uint16_t reg){
	int8_t result = -1;
    1982:	77 24       	eor	r7, r7
    1984:	7a 94       	dec	r7
 */
static inline int8_t searchEnd(int8_t begin, uint16_t len){
	//TODO noch zu verbessern, weil es viele reservierten Register zwischen zwei definierten Registern gibt
	int8_t result = -1;
	uint8_t endOfList = sizeof(regSet)/sizeof(slaveReg_t);
	int32_t remainLen = (int32_t)len;
    1986:	20 e0       	ldi	r18, 0x00	; 0
    1988:	30 e0       	ldi	r19, 0x00	; 0
	if(begin!=-1){
    198a:	bf ef       	ldi	r27, 0xFF	; 255
    198c:	7b 16       	cp	r7, r27
    198e:	39 f1       	breq	.+78     	; 0x19de <getMultiregister+0xd6>
		uint8_t i = 0;
		for (i = begin; i<endOfList;i++){
    1990:	87 2d       	mov	r24, r7
    1992:	22 c0       	rjmp	.+68     	; 0x19d8 <getMultiregister+0xd0>
			remainLen -= regSet[i].len;
    1994:	e8 2f       	mov	r30, r24
    1996:	f0 e0       	ldi	r31, 0x00	; 0
    1998:	bf 01       	movw	r22, r30
    199a:	66 0f       	add	r22, r22
    199c:	77 1f       	adc	r23, r23
    199e:	e6 0f       	add	r30, r22
    19a0:	f7 1f       	adc	r31, r23
    19a2:	eb 5f       	subi	r30, 0xFB	; 251
    19a4:	fb 49       	sbci	r31, 0x9B	; 155
    19a6:	90 81       	ld	r25, Z
    19a8:	92 95       	swap	r25
    19aa:	9f 70       	andi	r25, 0x0F	; 15
    19ac:	e1 81       	ldd	r30, Z+1	; 0x01
    19ae:	fe 2f       	mov	r31, r30
    19b0:	f2 95       	swap	r31
    19b2:	f0 7f       	andi	r31, 0xF0	; 240
    19b4:	6f 2f       	mov	r22, r31
    19b6:	69 2b       	or	r22, r25
    19b8:	e4 fb       	bst	r30, 4
    19ba:	77 27       	eor	r23, r23
    19bc:	70 f9       	bld	r23, 0
    19be:	06 1b       	sub	r16, r22
    19c0:	17 0b       	sbc	r17, r23
    19c2:	21 09       	sbc	r18, r1
    19c4:	31 09       	sbc	r19, r1
			if (remainLen<0){//Wenn die erforderte Länge zwischen 2 Registers liegt, dann nimmt das untere als Ergebnis
    19c6:	12 f4       	brpl	.+4      	; 0x19cc <getMultiregister+0xc4>
				i--;
    19c8:	81 50       	subi	r24, 0x01	; 1
    19ca:	0a c0       	rjmp	.+20     	; 0x19e0 <getMultiregister+0xd8>
				break;
			} else if (!remainLen){
    19cc:	01 15       	cp	r16, r1
    19ce:	11 05       	cpc	r17, r1
    19d0:	21 05       	cpc	r18, r1
    19d2:	31 05       	cpc	r19, r1
    19d4:	29 f0       	breq	.+10     	; 0x19e0 <getMultiregister+0xd8>
	int8_t result = -1;
	uint8_t endOfList = sizeof(regSet)/sizeof(slaveReg_t);
	int32_t remainLen = (int32_t)len;
	if(begin!=-1){
		uint8_t i = 0;
		for (i = begin; i<endOfList;i++){
    19d6:	8f 5f       	subi	r24, 0xFF	; 255
    19d8:	83 31       	cpi	r24, 0x13	; 19
    19da:	e0 f2       	brcs	.-72     	; 0x1994 <getMultiregister+0x8c>
    19dc:	01 c0       	rjmp	.+2      	; 0x19e0 <getMultiregister+0xd8>
 * 
 * \return int8_t die Position des Registers, das mit der Länge erreicht werden kann, in der Liste
 */
static inline int8_t searchEnd(int8_t begin, uint16_t len){
	//TODO noch zu verbessern, weil es viele reservierten Register zwischen zwei definierten Registern gibt
	int8_t result = -1;
    19de:	8f ef       	ldi	r24, 0xFF	; 255
	{
		result = HANDLER_NOT_INIT;
	} else{
		int8_t begin = searchReg(reg);
		int8_t end = searchEnd(begin, outputLen);
		if ((begin!=-1)&&(end!=-1)){
    19e0:	ef ef       	ldi	r30, 0xFF	; 255
    19e2:	7e 16       	cp	r7, r30
    19e4:	09 f4       	brne	.+2      	; 0x19e8 <getMultiregister+0xe0>
    19e6:	6f c1       	rjmp	.+734    	; 0x1cc6 <getMultiregister+0x3be>
    19e8:	8f 3f       	cpi	r24, 0xFF	; 255
    19ea:	09 f4       	brne	.+2      	; 0x19ee <getMultiregister+0xe6>
    19ec:	70 c1       	rjmp	.+736    	; 0x1cce <getMultiregister+0x3c6>
			uint8_t buffer[MAX_SIZE_FRAME] = {0};//Zwischenspeicherbuffer
    19ee:	fe 01       	movw	r30, r28
    19f0:	3b 96       	adiw	r30, 0x0b	; 11
    19f2:	20 e9       	ldi	r18, 0x90	; 144
    19f4:	31 e0       	ldi	r19, 0x01	; 1
    19f6:	df 01       	movw	r26, r30
    19f8:	b9 01       	movw	r22, r18
    19fa:	1d 92       	st	X+, r1
    19fc:	61 50       	subi	r22, 0x01	; 1
    19fe:	70 40       	sbci	r23, 0x00	; 0
    1a00:	e1 f7       	brne	.-8      	; 0x19fa <getMultiregister+0xf2>
	return result;
}

static inline uint16_t getTotalLen(int8_t begin, int8_t end){
	uint16_t result = 0;
	if ((begin>-1)&&(end>=begin)){
    1a02:	77 20       	and	r7, r7
    1a04:	54 f1       	brlt	.+84     	; 0x1a5a <getMultiregister+0x152>
    1a06:	87 15       	cp	r24, r7
    1a08:	5c f1       	brlt	.+86     	; 0x1a60 <getMultiregister+0x158>
		for (int i = begin;i<end+1;i++){
    1a0a:	27 2d       	mov	r18, r7
    1a0c:	07 2c       	mov	r0, r7
    1a0e:	00 0c       	add	r0, r0
    1a10:	33 0b       	sbc	r19, r19
	}
	return result;
}

static inline uint16_t getTotalLen(int8_t begin, int8_t end){
	uint16_t result = 0;
    1a12:	e1 2c       	mov	r14, r1
    1a14:	f1 2c       	mov	r15, r1
    1a16:	17 c0       	rjmp	.+46     	; 0x1a46 <getMultiregister+0x13e>
	if ((begin>-1)&&(end>=begin)){
		for (int i = begin;i<end+1;i++){
			result+=regSet[i].len;
    1a18:	f9 01       	movw	r30, r18
    1a1a:	ee 0f       	add	r30, r30
    1a1c:	ff 1f       	adc	r31, r31
    1a1e:	e2 0f       	add	r30, r18
    1a20:	f3 1f       	adc	r31, r19
    1a22:	eb 5f       	subi	r30, 0xFB	; 251
    1a24:	fb 49       	sbci	r31, 0x9B	; 155
    1a26:	90 81       	ld	r25, Z
    1a28:	92 95       	swap	r25
    1a2a:	9f 70       	andi	r25, 0x0F	; 15
    1a2c:	e1 81       	ldd	r30, Z+1	; 0x01
    1a2e:	fe 2f       	mov	r31, r30
    1a30:	f2 95       	swap	r31
    1a32:	f0 7f       	andi	r31, 0xF0	; 240
    1a34:	6f 2f       	mov	r22, r31
    1a36:	69 2b       	or	r22, r25
    1a38:	e4 fb       	bst	r30, 4
    1a3a:	77 27       	eor	r23, r23
    1a3c:	70 f9       	bld	r23, 0
    1a3e:	e6 0e       	add	r14, r22
    1a40:	f7 1e       	adc	r15, r23
}

static inline uint16_t getTotalLen(int8_t begin, int8_t end){
	uint16_t result = 0;
	if ((begin>-1)&&(end>=begin)){
		for (int i = begin;i<end+1;i++){
    1a42:	2f 5f       	subi	r18, 0xFF	; 255
    1a44:	3f 4f       	sbci	r19, 0xFF	; 255
    1a46:	68 2f       	mov	r22, r24
    1a48:	08 2e       	mov	r0, r24
    1a4a:	00 0c       	add	r0, r0
    1a4c:	77 0b       	sbc	r23, r23
    1a4e:	6f 5f       	subi	r22, 0xFF	; 255
    1a50:	7f 4f       	sbci	r23, 0xFF	; 255
    1a52:	26 17       	cp	r18, r22
    1a54:	37 07       	cpc	r19, r23
    1a56:	04 f3       	brlt	.-64     	; 0x1a18 <getMultiregister+0x110>
    1a58:	05 c0       	rjmp	.+10     	; 0x1a64 <getMultiregister+0x15c>
	}
	return result;
}

static inline uint16_t getTotalLen(int8_t begin, int8_t end){
	uint16_t result = 0;
    1a5a:	e1 2c       	mov	r14, r1
    1a5c:	f1 2c       	mov	r15, r1
    1a5e:	02 c0       	rjmp	.+4      	; 0x1a64 <getMultiregister+0x15c>
    1a60:	e1 2c       	mov	r14, r1
    1a62:	f1 2c       	mov	r15, r1
		int8_t end = searchEnd(begin, outputLen);
		if ((begin!=-1)&&(end!=-1)){
			uint8_t buffer[MAX_SIZE_FRAME] = {0};//Zwischenspeicherbuffer
			uint16_t positionPtr = 0;//der Zeiger zur nächsten freien Position, die Länge der nutzbaren Bytes
			outputLen = getTotalLen(begin,end);
			uint8_t processTime = outputLen/PAYLOAD_PER_FRAME + ((outputLen%PAYLOAD_PER_FRAME)?1:0);
    1a64:	97 01       	movw	r18, r14
    1a66:	36 95       	lsr	r19
    1a68:	27 95       	ror	r18
    1a6a:	36 95       	lsr	r19
    1a6c:	27 95       	ror	r18
    1a6e:	36 95       	lsr	r19
    1a70:	27 95       	ror	r18
    1a72:	a9 e0       	ldi	r26, 0x09	; 9
    1a74:	b1 e2       	ldi	r27, 0x21	; 33
    1a76:	0e 94 9a 10 	call	0x2134	; 0x2134 <__umulhisi3>
    1a7a:	96 95       	lsr	r25
    1a7c:	87 95       	ror	r24
    1a7e:	96 95       	lsr	r25
    1a80:	87 95       	ror	r24
    1a82:	68 ef       	ldi	r22, 0xF8	; 248
    1a84:	68 9f       	mul	r22, r24
    1a86:	90 01       	movw	r18, r0
    1a88:	69 9f       	mul	r22, r25
    1a8a:	30 0d       	add	r19, r0
    1a8c:	11 24       	eor	r1, r1
    1a8e:	e2 16       	cp	r14, r18
    1a90:	f3 06       	cpc	r15, r19
    1a92:	11 f0       	breq	.+4      	; 0x1a98 <getMultiregister+0x190>
    1a94:	21 e0       	ldi	r18, 0x01	; 1
    1a96:	01 c0       	rjmp	.+2      	; 0x1a9a <getMultiregister+0x192>
    1a98:	20 e0       	ldi	r18, 0x00	; 0
    1a9a:	4a 01       	movw	r8, r20
    1a9c:	4b 2c       	mov	r4, r11
    1a9e:	32 2e       	mov	r3, r18
    1aa0:	38 0e       	add	r3, r24
			for (uint8_t i = 0; i<processTime; i++){
    1aa2:	61 2c       	mov	r6, r1
 * 
 * \return uint8_t 0: kein Fehler, sonst: Fehler
 */
uint8_t getMultiregister(uint8_t add, uint16_t reg, usvMonitorHandler_t* dev_p, uint8_t* output_p, uint16_t outputLen){
	//TODO zu testen
	uint8_t result = NO_ERROR;
    1aa4:	51 2c       	mov	r5, r1
		if ((begin!=-1)&&(end!=-1)){
			uint8_t buffer[MAX_SIZE_FRAME] = {0};//Zwischenspeicherbuffer
			uint16_t positionPtr = 0;//der Zeiger zur nächsten freien Position, die Länge der nutzbaren Bytes
			outputLen = getTotalLen(begin,end);
			uint8_t processTime = outputLen/PAYLOAD_PER_FRAME + ((outputLen%PAYLOAD_PER_FRAME)?1:0);
			for (uint8_t i = 0; i<processTime; i++){
    1aa6:	00 c1       	rjmp	.+512    	; 0x1ca8 <getMultiregister+0x3a0>
				positionPtr = 0;
				begin = begin + PAYLOAD_PER_FRAME*i;
    1aa8:	86 2d       	mov	r24, r6
    1aaa:	81 95       	neg	r24
    1aac:	88 0f       	add	r24, r24
    1aae:	88 0f       	add	r24, r24
    1ab0:	88 0f       	add	r24, r24
    1ab2:	78 0e       	add	r7, r24
				uuaslProtocolHeader_t header = protocolHeaderPrint(add,begin,UUASL_R_REQ);
    1ab4:	87 2d       	mov	r24, r7
    1ab6:	07 2c       	mov	r0, r7
    1ab8:	00 0c       	add	r0, r0
    1aba:	99 0b       	sbc	r25, r25
 * \param rwReq 8 für Schreiben- und 4 für Lesenanforderungen
 * 
 * \return uuaslProtocolHeader_t das vollstängie Header des Protokolls
 */
static inline uuaslProtocolHeader_t protocolHeaderPrint(uint16_t add,uint16_t index,uint8_t rwReq){
	uuaslProtocolHeader_t result = {
    1abc:	25 ea       	ldi	r18, 0xA5	; 165
    1abe:	c5 56       	subi	r28, 0x65	; 101
    1ac0:	de 4f       	sbci	r29, 0xFE	; 254
    1ac2:	28 83       	st	Y, r18
    1ac4:	cb 59       	subi	r28, 0x9B	; 155
    1ac6:	d1 40       	sbci	r29, 0x01	; 1
    1ac8:	c4 56       	subi	r28, 0x64	; 100
    1aca:	de 4f       	sbci	r29, 0xFE	; 254
    1acc:	48 82       	st	Y, r4
    1ace:	cc 59       	subi	r28, 0x9C	; 156
    1ad0:	d1 40       	sbci	r29, 0x01	; 1
		.start = 0xA5,
		.slaveAdd = add,
		.rwaBytes.value_bf.slaveRegAddL = GET_SLAVE_ADD_LOW_PART(regSet[index].add),
    1ad2:	fc 01       	movw	r30, r24
    1ad4:	ee 0f       	add	r30, r30
    1ad6:	ff 1f       	adc	r31, r31
    1ad8:	e8 0f       	add	r30, r24
    1ada:	f9 1f       	adc	r31, r25
    1adc:	df 01       	movw	r26, r30
    1ade:	ac 5f       	subi	r26, 0xFC	; 252
    1ae0:	bb 49       	sbci	r27, 0x9B	; 155
    1ae2:	9c 91       	ld	r25, X
    1ae4:	11 96       	adiw	r26, 0x01	; 1
    1ae6:	8c 91       	ld	r24, X
 * \param rwReq 8 für Schreiben- und 4 für Lesenanforderungen
 * 
 * \return uuaslProtocolHeader_t das vollstängie Header des Protokolls
 */
static inline uuaslProtocolHeader_t protocolHeaderPrint(uint16_t add,uint16_t index,uint8_t rwReq){
	uuaslProtocolHeader_t result = {
    1ae8:	19 2f       	mov	r17, r25
    1aea:	c3 56       	subi	r28, 0x63	; 99
    1aec:	de 4f       	sbci	r29, 0xFE	; 254
    1aee:	98 83       	st	Y, r25
    1af0:	cd 59       	subi	r28, 0x9D	; 157
    1af2:	d1 40       	sbci	r29, 0x01	; 1
    1af4:	8f 70       	andi	r24, 0x0F	; 15
    1af6:	80 64       	ori	r24, 0x40	; 64
    1af8:	c2 56       	subi	r28, 0x62	; 98
    1afa:	de 4f       	sbci	r29, 0xFE	; 254
    1afc:	88 83       	st	Y, r24
    1afe:	ce 59       	subi	r28, 0x9E	; 158
    1b00:	d1 40       	sbci	r29, 0x01	; 1
		.start = 0xA5,
		.slaveAdd = add,
		.rwaBytes.value_bf.slaveRegAddL = GET_SLAVE_ADD_LOW_PART(regSet[index].add),
		.rwaBytes.value_bf.slaveRegAddH = GET_SLAVE_ADD_HIGH_PART(regSet[index].add),
		.rwaBytes.value_bf.rw = rwReq,
		.length = regSet[index].len
    1b02:	eb 5f       	subi	r30, 0xFB	; 251
    1b04:	fb 49       	sbci	r31, 0x9B	; 155
    1b06:	90 81       	ld	r25, Z
    1b08:	89 2f       	mov	r24, r25
    1b0a:	82 95       	swap	r24
    1b0c:	8f 70       	andi	r24, 0x0F	; 15
    1b0e:	91 81       	ldd	r25, Z+1	; 0x01
    1b10:	92 95       	swap	r25
    1b12:	90 7f       	andi	r25, 0xF0	; 240
    1b14:	98 2b       	or	r25, r24
 * \param rwReq 8 für Schreiben- und 4 für Lesenanforderungen
 * 
 * \return uuaslProtocolHeader_t das vollstängie Header des Protokolls
 */
static inline uuaslProtocolHeader_t protocolHeaderPrint(uint16_t add,uint16_t index,uint8_t rwReq){
	uuaslProtocolHeader_t result = {
    1b16:	c1 56       	subi	r28, 0x61	; 97
    1b18:	de 4f       	sbci	r29, 0xFE	; 254
    1b1a:	98 83       	st	Y, r25
    1b1c:	cf 59       	subi	r28, 0x9F	; 159
    1b1e:	d1 40       	sbci	r29, 0x01	; 1
		.rwaBytes.value_bf.slaveRegAddL = GET_SLAVE_ADD_LOW_PART(regSet[index].add),
		.rwaBytes.value_bf.slaveRegAddH = GET_SLAVE_ADD_HIGH_PART(regSet[index].add),
		.rwaBytes.value_bf.rw = rwReq,
		.length = regSet[index].len
	};
	return result;
    1b20:	85 e0       	ldi	r24, 0x05	; 5
    1b22:	fe 01       	movw	r30, r28
    1b24:	e5 56       	subi	r30, 0x65	; 101
    1b26:	fe 4f       	sbci	r31, 0xFE	; 254
    1b28:	de 01       	movw	r26, r28
    1b2a:	11 96       	adiw	r26, 0x01	; 1
    1b2c:	01 90       	ld	r0, Z+
    1b2e:	0d 92       	st	X+, r0
    1b30:	8a 95       	dec	r24
    1b32:	e1 f7       	brne	.-8      	; 0x1b2c <getMultiregister+0x224>
    1b34:	85 e0       	ldi	r24, 0x05	; 5
    1b36:	fe 01       	movw	r30, r28
    1b38:	31 96       	adiw	r30, 0x01	; 1
    1b3a:	de 01       	movw	r26, r28
    1b3c:	16 96       	adiw	r26, 0x06	; 6
    1b3e:	01 90       	ld	r0, Z+
    1b40:	0d 92       	st	X+, r0
    1b42:	8a 95       	dec	r24
    1b44:	e1 f7       	brne	.-8      	; 0x1b3e <getMultiregister+0x236>
			outputLen = getTotalLen(begin,end);
			uint8_t processTime = outputLen/PAYLOAD_PER_FRAME + ((outputLen%PAYLOAD_PER_FRAME)?1:0);
			for (uint8_t i = 0; i<processTime; i++){
				positionPtr = 0;
				begin = begin + PAYLOAD_PER_FRAME*i;
				uuaslProtocolHeader_t header = protocolHeaderPrint(add,begin,UUASL_R_REQ);
    1b46:	85 e0       	ldi	r24, 0x05	; 5
    1b48:	fe 01       	movw	r30, r28
    1b4a:	36 96       	adiw	r30, 0x06	; 6
    1b4c:	de 01       	movw	r26, r28
    1b4e:	a5 56       	subi	r26, 0x65	; 101
    1b50:	be 4f       	sbci	r27, 0xFE	; 254
    1b52:	01 90       	ld	r0, Z+
    1b54:	0d 92       	st	X+, r0
    1b56:	8a 95       	dec	r24
    1b58:	e1 f7       	brne	.-8      	; 0x1b52 <getMultiregister+0x24a>
				header.length = 8;//magic number: Bytes vom gesamten Protokoll: 1 für Datenlängenanfrage, 7 für übrigen
    1b5a:	88 e0       	ldi	r24, 0x08	; 8
    1b5c:	c1 56       	subi	r28, 0x61	; 97
    1b5e:	de 4f       	sbci	r29, 0xFE	; 254
    1b60:	88 83       	st	Y, r24
    1b62:	cf 59       	subi	r28, 0x9F	; 159
    1b64:	d1 40       	sbci	r29, 0x01	; 1
				positionPtr += sizeof(header)/sizeof(uint8_t);
				memcpy((&buffer[0]),(uint8_t*)&header,positionPtr);
    1b66:	85 e0       	ldi	r24, 0x05	; 5
    1b68:	fe 01       	movw	r30, r28
    1b6a:	e5 56       	subi	r30, 0x65	; 101
    1b6c:	fe 4f       	sbci	r31, 0xFE	; 254
    1b6e:	de 01       	movw	r26, r28
    1b70:	1b 96       	adiw	r26, 0x0b	; 11
    1b72:	01 90       	ld	r0, Z+
    1b74:	0d 92       	st	X+, r0
    1b76:	8a 95       	dec	r24
    1b78:	e1 f7       	brne	.-8      	; 0x1b72 <getMultiregister+0x26a>
				uint8_t dataSegLen = (outputLen<PAYLOAD_PER_FRAME)?outputLen:PAYLOAD_PER_FRAME;
    1b7a:	8e 2d       	mov	r24, r14
    1b7c:	79 ef       	ldi	r23, 0xF9	; 249
    1b7e:	e7 16       	cp	r14, r23
    1b80:	f1 04       	cpc	r15, r1
    1b82:	08 f0       	brcs	.+2      	; 0x1b86 <getMultiregister+0x27e>
    1b84:	88 ef       	ldi	r24, 0xF8	; 248
    1b86:	c0 56       	subi	r28, 0x60	; 96
    1b88:	de 4f       	sbci	r29, 0xFE	; 254
    1b8a:	88 83       	st	Y, r24
    1b8c:	c0 5a       	subi	r28, 0xA0	; 160
    1b8e:	d1 40       	sbci	r29, 0x01	; 1
				memcpy(&(buffer[positionPtr]),&dataSegLen,1);//magic number: Die Länge von den zu empfangenen Nutzdaten in Byte
    1b90:	88 8b       	std	Y+16, r24	; 0x10
				positionPtr += sizeof(dataSegLen)/sizeof(uint8_t);
				buffer[positionPtr++] = crc8Checksum(&dataSegLen,1,dev_p->crc8Polynom);
    1b92:	d4 01       	movw	r26, r8
    1b94:	17 96       	adiw	r26, 0x07	; 7
    1b96:	4c 91       	ld	r20, X
    1b98:	61 e0       	ldi	r22, 0x01	; 1
    1b9a:	70 e0       	ldi	r23, 0x00	; 0
    1b9c:	ce 01       	movw	r24, r28
    1b9e:	80 56       	subi	r24, 0x60	; 96
    1ba0:	9e 4f       	sbci	r25, 0xFE	; 254
    1ba2:	0e 94 49 0c 	call	0x1892	; 0x1892 <crc8Checksum>
    1ba6:	89 8b       	std	Y+17, r24	; 0x11
				buffer[positionPtr++] = 0xA6;
    1ba8:	86 ea       	ldi	r24, 0xA6	; 166
    1baa:	8a 8b       	std	Y+18, r24	; 0x12
				//Datensenden
				(*(dev_p->transmitFunc_p))(buffer,positionPtr);
    1bac:	d4 01       	movw	r26, r8
    1bae:	12 96       	adiw	r26, 0x02	; 2
    1bb0:	ed 91       	ld	r30, X+
    1bb2:	fc 91       	ld	r31, X
    1bb4:	13 97       	sbiw	r26, 0x03	; 3
    1bb6:	68 e0       	ldi	r22, 0x08	; 8
    1bb8:	70 e0       	ldi	r23, 0x00	; 0
    1bba:	ce 01       	movw	r24, r28
    1bbc:	0b 96       	adiw	r24, 0x0b	; 11
    1bbe:	09 95       	icall
#if WAIT_FUNCTION_ACTIVE
				(*(dev_p->waitFunc_p))(FACTOR_TO_MICROSEC*CHARS_PER_FRAME*positionPtr*3/BAUDRATE_BAUD/2);//warten
#endif
				positionPtr=1;//hier dient als die zu empfangenen Daten
				(*(dev_p->receiveFunc_p))(buffer, positionPtr);
    1bc0:	d4 01       	movw	r26, r8
    1bc2:	ed 91       	ld	r30, X+
    1bc4:	fc 91       	ld	r31, X
    1bc6:	61 e0       	ldi	r22, 0x01	; 1
    1bc8:	70 e0       	ldi	r23, 0x00	; 0
    1bca:	ce 01       	movw	r24, r28
    1bcc:	0b 96       	adiw	r24, 0x0b	; 11
    1bce:	09 95       	icall
#if WAIT_FUNCTION_ACTIVE
				(*(dev_p->waitFunc_p))(FACTOR_TO_MICROSEC*CHARS_PER_FRAME*positionPtr*3/BAUDRATE_BAUD/2);//warten
#endif
				if (buffer[0]==0xA2){
    1bd0:	8b 85       	ldd	r24, Y+11	; 0x0b
    1bd2:	82 3a       	cpi	r24, 0xA2	; 162
    1bd4:	09 f4       	brne	.+2      	; 0x1bd8 <getMultiregister+0x2d0>
    1bd6:	5b c0       	rjmp	.+182    	; 0x1c8e <getMultiregister+0x386>
					result = DATA_INVALID;
				} else if (buffer[0]==0xA5){
    1bd8:	85 3a       	cpi	r24, 0xA5	; 165
    1bda:	09 f0       	breq	.+2      	; 0x1bde <getMultiregister+0x2d6>
    1bdc:	60 c0       	rjmp	.+192    	; 0x1c9e <getMultiregister+0x396>
					positionPtr=4;//hier dient als die zu empfangenen Daten
					(*(dev_p->receiveFunc_p))(buffer, positionPtr);
    1bde:	d4 01       	movw	r26, r8
    1be0:	ed 91       	ld	r30, X+
    1be2:	fc 91       	ld	r31, X
    1be4:	64 e0       	ldi	r22, 0x04	; 4
    1be6:	70 e0       	ldi	r23, 0x00	; 0
    1be8:	ce 01       	movw	r24, r28
    1bea:	0b 96       	adiw	r24, 0x0b	; 11
    1bec:	09 95       	icall
#if WAIT_FUNCTION_ACTIVE
					(*(dev_p->waitFunc_p))(FACTOR_TO_MICROSEC*CHARS_PER_FRAME*positionPtr*3/BAUDRATE_BAUD/2);//warten
#endif
					//Checken Protokollrelevante Informationen
					bool checkRxDataInfo = (buffer[0]==add) && \
    1bee:	8b 85       	ldd	r24, Y+11	; 0x0b
											(buffer[1]==header.rwaBytes.value[0]) && \
    1bf0:	48 12       	cpse	r4, r24
    1bf2:	0e c0       	rjmp	.+28     	; 0x1c10 <getMultiregister+0x308>
    1bf4:	8c 85       	ldd	r24, Y+12	; 0x0c
					(*(dev_p->receiveFunc_p))(buffer, positionPtr);
#if WAIT_FUNCTION_ACTIVE
					(*(dev_p->waitFunc_p))(FACTOR_TO_MICROSEC*CHARS_PER_FRAME*positionPtr*3/BAUDRATE_BAUD/2);//warten
#endif
					//Checken Protokollrelevante Informationen
					bool checkRxDataInfo = (buffer[0]==add) && \
    1bf6:	81 13       	cpse	r24, r17
    1bf8:	0d c0       	rjmp	.+26     	; 0x1c14 <getMultiregister+0x30c>
											(buffer[1]==header.rwaBytes.value[0]) && \
											((buffer[2]^header.rwaBytes.value[1])==0x40);
    1bfa:	9d 85       	ldd	r25, Y+13	; 0x0d
    1bfc:	c2 56       	subi	r28, 0x62	; 98
    1bfe:	de 4f       	sbci	r29, 0xFE	; 254
    1c00:	88 81       	ld	r24, Y
    1c02:	ce 59       	subi	r28, 0x9E	; 158
    1c04:	d1 40       	sbci	r29, 0x01	; 1
    1c06:	89 27       	eor	r24, r25
#if WAIT_FUNCTION_ACTIVE
					(*(dev_p->waitFunc_p))(FACTOR_TO_MICROSEC*CHARS_PER_FRAME*positionPtr*3/BAUDRATE_BAUD/2);//warten
#endif
					//Checken Protokollrelevante Informationen
					bool checkRxDataInfo = (buffer[0]==add) && \
											(buffer[1]==header.rwaBytes.value[0]) && \
    1c08:	80 34       	cpi	r24, 0x40	; 64
    1c0a:	31 f0       	breq	.+12     	; 0x1c18 <getMultiregister+0x310>
    1c0c:	80 e0       	ldi	r24, 0x00	; 0
    1c0e:	05 c0       	rjmp	.+10     	; 0x1c1a <getMultiregister+0x312>
    1c10:	80 e0       	ldi	r24, 0x00	; 0
    1c12:	03 c0       	rjmp	.+6      	; 0x1c1a <getMultiregister+0x312>
    1c14:	80 e0       	ldi	r24, 0x00	; 0
    1c16:	01 c0       	rjmp	.+2      	; 0x1c1a <getMultiregister+0x312>
    1c18:	81 e0       	ldi	r24, 0x01	; 1
					(*(dev_p->receiveFunc_p))(buffer, positionPtr);
#if WAIT_FUNCTION_ACTIVE
					(*(dev_p->waitFunc_p))(FACTOR_TO_MICROSEC*CHARS_PER_FRAME*positionPtr*3/BAUDRATE_BAUD/2);//warten
#endif
					//Checken Protokollrelevante Informationen
					bool checkRxDataInfo = (buffer[0]==add) && \
    1c1a:	81 70       	andi	r24, 0x01	; 1
											(buffer[1]==header.rwaBytes.value[0]) && \
											((buffer[2]^header.rwaBytes.value[1])==0x40);
					if (checkRxDataInfo){
    1c1c:	09 f4       	brne	.+2      	; 0x1c20 <getMultiregister+0x318>
    1c1e:	3f c0       	rjmp	.+126    	; 0x1c9e <getMultiregister+0x396>
						positionPtr=buffer[3]-5;//Die Länge vom Header = 5
    1c20:	0e 85       	ldd	r16, Y+14	; 0x0e
    1c22:	10 e0       	ldi	r17, 0x00	; 0
    1c24:	b8 01       	movw	r22, r16
    1c26:	65 50       	subi	r22, 0x05	; 5
    1c28:	71 09       	sbc	r23, r1
						(*(dev_p->receiveFunc_p))(buffer, positionPtr);
    1c2a:	d4 01       	movw	r26, r8
    1c2c:	ed 91       	ld	r30, X+
    1c2e:	fc 91       	ld	r31, X
    1c30:	ce 01       	movw	r24, r28
    1c32:	0b 96       	adiw	r24, 0x0b	; 11
    1c34:	09 95       	icall
#if WAIT_FUNCTION_ACTIVE
						(*(dev_p->waitFunc_p))(FACTOR_TO_MICROSEC*CHARS_PER_FRAME*positionPtr*3/BAUDRATE_BAUD/2);//warten
#endif
						bool checkDataBlock = checkRxData(buffer,positionPtr-2,buffer[positionPtr-2],dev_p->crc8Polynom);
    1c36:	f4 01       	movw	r30, r8
    1c38:	47 81       	ldd	r20, Z+7	; 0x07
    1c3a:	58 01       	movw	r10, r16
    1c3c:	f7 e0       	ldi	r31, 0x07	; 7
    1c3e:	af 1a       	sub	r10, r31
    1c40:	b1 08       	sbc	r11, r1
    1c42:	eb e0       	ldi	r30, 0x0B	; 11
    1c44:	f0 e0       	ldi	r31, 0x00	; 0
    1c46:	ec 0f       	add	r30, r28
    1c48:	fd 1f       	adc	r31, r29
    1c4a:	ea 0d       	add	r30, r10
    1c4c:	fb 1d       	adc	r31, r11
    1c4e:	20 80       	ld	r2, Z
	};	
	return result;
}

static inline bool checkRxData(uint8_t* data,uint16_t dataLen, uint8_t rxChecksumValue, uint8_t crc8Polynom){
	return crc8Checksum(data,dataLen,crc8Polynom)==rxChecksumValue;
    1c50:	b5 01       	movw	r22, r10
    1c52:	ce 01       	movw	r24, r28
    1c54:	0b 96       	adiw	r24, 0x0b	; 11
    1c56:	0e 94 49 0c 	call	0x1892	; 0x1892 <crc8Checksum>
						(*(dev_p->receiveFunc_p))(buffer, positionPtr);
#if WAIT_FUNCTION_ACTIVE
						(*(dev_p->waitFunc_p))(FACTOR_TO_MICROSEC*CHARS_PER_FRAME*positionPtr*3/BAUDRATE_BAUD/2);//warten
#endif
						bool checkDataBlock = checkRxData(buffer,positionPtr-2,buffer[positionPtr-2],dev_p->crc8Polynom);
						bool checkEndByte = buffer[positionPtr-1]==0xA6;
    1c5a:	06 50       	subi	r16, 0x06	; 6
    1c5c:	11 09       	sbc	r17, r1
    1c5e:	eb e0       	ldi	r30, 0x0B	; 11
    1c60:	f0 e0       	ldi	r31, 0x00	; 0
    1c62:	ec 0f       	add	r30, r28
    1c64:	fd 1f       	adc	r31, r29
    1c66:	e0 0f       	add	r30, r16
    1c68:	f1 1f       	adc	r31, r17
    1c6a:	90 81       	ld	r25, Z
						if (checkDataBlock&&checkEndByte){
    1c6c:	82 11       	cpse	r24, r2
    1c6e:	17 c0       	rjmp	.+46     	; 0x1c9e <getMultiregister+0x396>
    1c70:	96 3a       	cpi	r25, 0xA6	; 166
    1c72:	a9 f4       	brne	.+42     	; 0x1c9e <getMultiregister+0x396>
							memcpy(&(output_p[i*PAYLOAD_PER_FRAME]),buffer,positionPtr-2);
    1c74:	a5 01       	movw	r20, r10
    1c76:	be 01       	movw	r22, r28
    1c78:	65 5f       	subi	r22, 0xF5	; 245
    1c7a:	7f 4f       	sbci	r23, 0xFF	; 255
    1c7c:	c6 01       	movw	r24, r12
    1c7e:	28 ef       	ldi	r18, 0xF8	; 248
    1c80:	62 9e       	mul	r6, r18
    1c82:	80 0d       	add	r24, r0
    1c84:	91 1d       	adc	r25, r1
    1c86:	11 24       	eor	r1, r1
    1c88:	0e 94 df 11 	call	0x23be	; 0x23be <memcpy>
    1c8c:	03 c0       	rjmp	.+6      	; 0x1c94 <getMultiregister+0x38c>
				(*(dev_p->receiveFunc_p))(buffer, positionPtr);
#if WAIT_FUNCTION_ACTIVE
				(*(dev_p->waitFunc_p))(FACTOR_TO_MICROSEC*CHARS_PER_FRAME*positionPtr*3/BAUDRATE_BAUD/2);//warten
#endif
				if (buffer[0]==0xA2){
					result = DATA_INVALID;
    1c8e:	68 94       	set
    1c90:	55 24       	eor	r5, r5
    1c92:	52 f8       	bld	r5, 2
					result = PROCESS_FAIL;
					break;
				}
				
				//Immer am Ende der Schleife
				outputLen -= PAYLOAD_PER_FRAME;
    1c94:	68 ef       	ldi	r22, 0xF8	; 248
    1c96:	e6 1a       	sub	r14, r22
    1c98:	f1 08       	sbc	r15, r1
		if ((begin!=-1)&&(end!=-1)){
			uint8_t buffer[MAX_SIZE_FRAME] = {0};//Zwischenspeicherbuffer
			uint16_t positionPtr = 0;//der Zeiger zur nächsten freien Position, die Länge der nutzbaren Bytes
			outputLen = getTotalLen(begin,end);
			uint8_t processTime = outputLen/PAYLOAD_PER_FRAME + ((outputLen%PAYLOAD_PER_FRAME)?1:0);
			for (uint8_t i = 0; i<processTime; i++){
    1c9a:	63 94       	inc	r6
    1c9c:	05 c0       	rjmp	.+10     	; 0x1ca8 <getMultiregister+0x3a0>
						bool checkEndByte = buffer[positionPtr-1]==0xA6;
						if (checkDataBlock&&checkEndByte){
							memcpy(&(output_p[i*PAYLOAD_PER_FRAME]),buffer,positionPtr-2);
						} else {
							result = PROCESS_FAIL;
							break;
    1c9e:	0f 2e       	mov	r0, r31
    1ca0:	f5 e0       	ldi	r31, 0x05	; 5
    1ca2:	5f 2e       	mov	r5, r31
    1ca4:	f0 2d       	mov	r31, r0
    1ca6:	16 c0       	rjmp	.+44     	; 0x1cd4 <getMultiregister+0x3cc>
		if ((begin!=-1)&&(end!=-1)){
			uint8_t buffer[MAX_SIZE_FRAME] = {0};//Zwischenspeicherbuffer
			uint16_t positionPtr = 0;//der Zeiger zur nächsten freien Position, die Länge der nutzbaren Bytes
			outputLen = getTotalLen(begin,end);
			uint8_t processTime = outputLen/PAYLOAD_PER_FRAME + ((outputLen%PAYLOAD_PER_FRAME)?1:0);
			for (uint8_t i = 0; i<processTime; i++){
    1ca8:	63 14       	cp	r6, r3
    1caa:	08 f4       	brcc	.+2      	; 0x1cae <getMultiregister+0x3a6>
    1cac:	fd ce       	rjmp	.-518    	; 0x1aa8 <getMultiregister+0x1a0>
    1cae:	12 c0       	rjmp	.+36     	; 0x1cd4 <getMultiregister+0x3cc>
 */
uint8_t getMultiregister(uint8_t add, uint16_t reg, usvMonitorHandler_t* dev_p, uint8_t* output_p, uint16_t outputLen){
	//TODO zu testen
	uint8_t result = NO_ERROR;
	if((dev_p==NULL)||(output_p==NULL)){
		result = NULL_POINTER;
    1cb0:	55 24       	eor	r5, r5
    1cb2:	53 94       	inc	r5
    1cb4:	0f c0       	rjmp	.+30     	; 0x1cd4 <getMultiregister+0x3cc>
    1cb6:	55 24       	eor	r5, r5
    1cb8:	53 94       	inc	r5
    1cba:	0c c0       	rjmp	.+24     	; 0x1cd4 <getMultiregister+0x3cc>
	} else if (dev_p->initState==0)
	{
		result = HANDLER_NOT_INIT;
    1cbc:	0f 2e       	mov	r0, r31
    1cbe:	f6 e0       	ldi	r31, 0x06	; 6
    1cc0:	5f 2e       	mov	r5, r31
    1cc2:	f0 2d       	mov	r31, r0
    1cc4:	07 c0       	rjmp	.+14     	; 0x1cd4 <getMultiregister+0x3cc>
				
				//Immer am Ende der Schleife
				outputLen -= PAYLOAD_PER_FRAME;
			}
		} else{
			result = DATA_INVALID;
    1cc6:	68 94       	set
    1cc8:	55 24       	eor	r5, r5
    1cca:	52 f8       	bld	r5, 2
    1ccc:	03 c0       	rjmp	.+6      	; 0x1cd4 <getMultiregister+0x3cc>
    1cce:	68 94       	set
    1cd0:	55 24       	eor	r5, r5
    1cd2:	52 f8       	bld	r5, 2
		}
	}
	return result;
}
    1cd4:	85 2d       	mov	r24, r5
    1cd6:	c0 56       	subi	r28, 0x60	; 96
    1cd8:	de 4f       	sbci	r29, 0xFE	; 254
    1cda:	cd bf       	out	0x3d, r28	; 61
    1cdc:	de bf       	out	0x3e, r29	; 62
    1cde:	df 91       	pop	r29
    1ce0:	cf 91       	pop	r28
    1ce2:	1f 91       	pop	r17
    1ce4:	0f 91       	pop	r16
    1ce6:	ff 90       	pop	r15
    1ce8:	ef 90       	pop	r14
    1cea:	df 90       	pop	r13
    1cec:	cf 90       	pop	r12
    1cee:	bf 90       	pop	r11
    1cf0:	af 90       	pop	r10
    1cf2:	9f 90       	pop	r9
    1cf4:	8f 90       	pop	r8
    1cf6:	7f 90       	pop	r7
    1cf8:	6f 90       	pop	r6
    1cfa:	5f 90       	pop	r5
    1cfc:	4f 90       	pop	r4
    1cfe:	3f 90       	pop	r3
    1d00:	2f 90       	pop	r2
    1d02:	08 95       	ret

00001d04 <setMultiregister>:
volatile int8_t begin=0;
volatile int8_t end=0;
volatile uint16_t lenTemp=0;
volatile uint8_t processTime = 0;

uint8_t setMultiregister(uint8_t add, uint16_t reg, usvMonitorHandler_t* dev_p, uint8_t* input_p, uint16_t inputLen){
    1d04:	7f 92       	push	r7
    1d06:	8f 92       	push	r8
    1d08:	9f 92       	push	r9
    1d0a:	af 92       	push	r10
    1d0c:	bf 92       	push	r11
    1d0e:	cf 92       	push	r12
    1d10:	df 92       	push	r13
    1d12:	ef 92       	push	r14
    1d14:	ff 92       	push	r15
    1d16:	0f 93       	push	r16
    1d18:	1f 93       	push	r17
    1d1a:	cf 93       	push	r28
    1d1c:	df 93       	push	r29
    1d1e:	cd b7       	in	r28, 0x3d	; 61
    1d20:	de b7       	in	r29, 0x3e	; 62
    1d22:	c0 5a       	subi	r28, 0xA0	; 160
    1d24:	d1 40       	sbci	r29, 0x01	; 1
    1d26:	cd bf       	out	0x3d, r28	; 61
    1d28:	de bf       	out	0x3e, r29	; 62
    1d2a:	78 2e       	mov	r7, r24
    1d2c:	6a 01       	movw	r12, r20
    1d2e:	59 01       	movw	r10, r18
	//TODO zu testen
	uint8_t result = NO_ERROR;
	if((dev_p==NULL)||(input_p==NULL)){
    1d30:	45 2b       	or	r20, r21
    1d32:	09 f4       	brne	.+2      	; 0x1d36 <setMultiregister+0x32>
    1d34:	b7 c1       	rjmp	.+878    	; 0x20a4 <setMultiregister+0x3a0>
    1d36:	23 2b       	or	r18, r19
    1d38:	09 f4       	brne	.+2      	; 0x1d3c <setMultiregister+0x38>
    1d3a:	b7 c1       	rjmp	.+878    	; 0x20aa <setMultiregister+0x3a6>
    1d3c:	80 e0       	ldi	r24, 0x00	; 0
    1d3e:	11 c0       	rjmp	.+34     	; 0x1d62 <setMultiregister+0x5e>
 */
static inline int8_t searchReg(uint16_t reg){
	int8_t result = -1;
	for (uint8_t i = 0;i<sizeof(regSet)/sizeof(slaveReg_t);i++)
	{
		if (regSet[i].add == reg){
    1d40:	e8 2f       	mov	r30, r24
    1d42:	f0 e0       	ldi	r31, 0x00	; 0
    1d44:	9f 01       	movw	r18, r30
    1d46:	22 0f       	add	r18, r18
    1d48:	33 1f       	adc	r19, r19
    1d4a:	e2 0f       	add	r30, r18
    1d4c:	f3 1f       	adc	r31, r19
    1d4e:	ec 5f       	subi	r30, 0xFC	; 252
    1d50:	fb 49       	sbci	r31, 0x9B	; 155
    1d52:	91 81       	ldd	r25, Z+1	; 0x01
    1d54:	20 81       	ld	r18, Z
    1d56:	39 2f       	mov	r19, r25
    1d58:	3f 70       	andi	r19, 0x0F	; 15
    1d5a:	62 17       	cp	r22, r18
    1d5c:	73 07       	cpc	r23, r19
    1d5e:	21 f0       	breq	.+8      	; 0x1d68 <setMultiregister+0x64>
 * 
 * \return int8_t -1: kein gefunden, sonst: die Position in der Liste
 */
static inline int8_t searchReg(uint16_t reg){
	int8_t result = -1;
	for (uint8_t i = 0;i<sizeof(regSet)/sizeof(slaveReg_t);i++)
    1d60:	8f 5f       	subi	r24, 0xFF	; 255
    1d62:	83 31       	cpi	r24, 0x13	; 19
    1d64:	68 f3       	brcs	.-38     	; 0x1d40 <setMultiregister+0x3c>
 * \param reg die Adresse des Registers
 * 
 * \return int8_t -1: kein gefunden, sonst: die Position in der Liste
 */
static inline int8_t searchReg(uint16_t reg){
	int8_t result = -1;
    1d66:	8f ef       	ldi	r24, 0xFF	; 255
	//TODO zu testen
	uint8_t result = NO_ERROR;
	if((dev_p==NULL)||(input_p==NULL)){
		result = NULL_POINTER;
	} else{
		/*volatile int8_t*/ begin = searchReg(reg);
    1d68:	80 93 e0 2b 	sts	0x2BE0, r24	; 0x802be0 <begin>
		/*volatile int8_t*/ end = searchEnd(begin, inputLen);
    1d6c:	80 91 e0 2b 	lds	r24, 0x2BE0	; 0x802be0 <begin>
 */
static inline int8_t searchEnd(int8_t begin, uint16_t len){
	//TODO noch zu verbessern, weil es viele reservierten Register zwischen zwei definierten Registern gibt
	int8_t result = -1;
	uint8_t endOfList = sizeof(regSet)/sizeof(slaveReg_t);
	int32_t remainLen = (int32_t)len;
    1d70:	a8 01       	movw	r20, r16
    1d72:	60 e0       	ldi	r22, 0x00	; 0
    1d74:	70 e0       	ldi	r23, 0x00	; 0
	if(begin!=-1){
    1d76:	8f 3f       	cpi	r24, 0xFF	; 255
    1d78:	31 f1       	breq	.+76     	; 0x1dc6 <setMultiregister+0xc2>
    1d7a:	22 c0       	rjmp	.+68     	; 0x1dc0 <setMultiregister+0xbc>
		uint8_t i = 0;
		for (i = begin; i<endOfList;i++){
			remainLen -= regSet[i].len;
    1d7c:	e8 2f       	mov	r30, r24
    1d7e:	f0 e0       	ldi	r31, 0x00	; 0
    1d80:	9f 01       	movw	r18, r30
    1d82:	22 0f       	add	r18, r18
    1d84:	33 1f       	adc	r19, r19
    1d86:	e2 0f       	add	r30, r18
    1d88:	f3 1f       	adc	r31, r19
    1d8a:	eb 5f       	subi	r30, 0xFB	; 251
    1d8c:	fb 49       	sbci	r31, 0x9B	; 155
    1d8e:	90 81       	ld	r25, Z
    1d90:	92 95       	swap	r25
    1d92:	9f 70       	andi	r25, 0x0F	; 15
    1d94:	e1 81       	ldd	r30, Z+1	; 0x01
    1d96:	fe 2f       	mov	r31, r30
    1d98:	f2 95       	swap	r31
    1d9a:	f0 7f       	andi	r31, 0xF0	; 240
    1d9c:	2f 2f       	mov	r18, r31
    1d9e:	29 2b       	or	r18, r25
    1da0:	e4 fb       	bst	r30, 4
    1da2:	33 27       	eor	r19, r19
    1da4:	30 f9       	bld	r19, 0
    1da6:	42 1b       	sub	r20, r18
    1da8:	53 0b       	sbc	r21, r19
    1daa:	61 09       	sbc	r22, r1
    1dac:	71 09       	sbc	r23, r1
			if (remainLen<0){//Wenn die erforderte Länge zwischen 2 Registers liegt, dann nimmt das untere als Ergebnis
    1dae:	12 f4       	brpl	.+4      	; 0x1db4 <setMultiregister+0xb0>
				i--;
    1db0:	81 50       	subi	r24, 0x01	; 1
    1db2:	0a c0       	rjmp	.+20     	; 0x1dc8 <setMultiregister+0xc4>
				break;
			} else if (!remainLen){
    1db4:	41 15       	cp	r20, r1
    1db6:	51 05       	cpc	r21, r1
    1db8:	61 05       	cpc	r22, r1
    1dba:	71 05       	cpc	r23, r1
    1dbc:	29 f0       	breq	.+10     	; 0x1dc8 <setMultiregister+0xc4>
	int8_t result = -1;
	uint8_t endOfList = sizeof(regSet)/sizeof(slaveReg_t);
	int32_t remainLen = (int32_t)len;
	if(begin!=-1){
		uint8_t i = 0;
		for (i = begin; i<endOfList;i++){
    1dbe:	8f 5f       	subi	r24, 0xFF	; 255
    1dc0:	83 31       	cpi	r24, 0x13	; 19
    1dc2:	e0 f2       	brcs	.-72     	; 0x1d7c <setMultiregister+0x78>
    1dc4:	01 c0       	rjmp	.+2      	; 0x1dc8 <setMultiregister+0xc4>
 * 
 * \return int8_t die Position des Registers, das mit der Länge erreicht werden kann, in der Liste
 */
static inline int8_t searchEnd(int8_t begin, uint16_t len){
	//TODO noch zu verbessern, weil es viele reservierten Register zwischen zwei definierten Registern gibt
	int8_t result = -1;
    1dc6:	8f ef       	ldi	r24, 0xFF	; 255
	uint8_t result = NO_ERROR;
	if((dev_p==NULL)||(input_p==NULL)){
		result = NULL_POINTER;
	} else{
		/*volatile int8_t*/ begin = searchReg(reg);
		/*volatile int8_t*/ end = searchEnd(begin, inputLen);
    1dc8:	80 93 df 2b 	sts	0x2BDF, r24	; 0x802bdf <end>
		
		if ((begin != -1)&&(end>=begin)){
    1dcc:	80 91 e0 2b 	lds	r24, 0x2BE0	; 0x802be0 <begin>
    1dd0:	8f 3f       	cpi	r24, 0xFF	; 255
    1dd2:	09 f4       	brne	.+2      	; 0x1dd6 <setMultiregister+0xd2>
    1dd4:	6d c1       	rjmp	.+730    	; 0x20b0 <setMultiregister+0x3ac>
    1dd6:	90 91 df 2b 	lds	r25, 0x2BDF	; 0x802bdf <end>
    1dda:	80 91 e0 2b 	lds	r24, 0x2BE0	; 0x802be0 <begin>
    1dde:	98 17       	cp	r25, r24
    1de0:	0c f4       	brge	.+2      	; 0x1de4 <setMultiregister+0xe0>
    1de2:	6a c1       	rjmp	.+724    	; 0x20b8 <setMultiregister+0x3b4>
			uint8_t buffer[MAX_SIZE_FRAME] = {0};//Zwischenspeicherbuffer
    1de4:	fe 01       	movw	r30, r28
    1de6:	3b 96       	adiw	r30, 0x0b	; 11
    1de8:	80 e9       	ldi	r24, 0x90	; 144
    1dea:	91 e0       	ldi	r25, 0x01	; 1
    1dec:	df 01       	movw	r26, r30
    1dee:	9c 01       	movw	r18, r24
    1df0:	1d 92       	st	X+, r1
    1df2:	21 50       	subi	r18, 0x01	; 1
    1df4:	30 40       	sbci	r19, 0x00	; 0
    1df6:	e1 f7       	brne	.-8      	; 0x1df0 <setMultiregister+0xec>
			uint16_t positionPtr = 0;//der Zeiger zur nächsten freien Position, die Länge der nutzbaren Bytes
			lenTemp = getTotalLen(begin,end);
    1df8:	a0 91 df 2b 	lds	r26, 0x2BDF	; 0x802bdf <end>
    1dfc:	80 91 e0 2b 	lds	r24, 0x2BE0	; 0x802be0 <begin>
	return result;
}

static inline uint16_t getTotalLen(int8_t begin, int8_t end){
	uint16_t result = 0;
	if ((begin>-1)&&(end>=begin)){
    1e00:	88 23       	and	r24, r24
    1e02:	44 f1       	brlt	.+80     	; 0x1e54 <setMultiregister+0x150>
    1e04:	a8 17       	cp	r26, r24
    1e06:	4c f1       	brlt	.+82     	; 0x1e5a <setMultiregister+0x156>
		for (int i = begin;i<end+1;i++){
    1e08:	08 2e       	mov	r0, r24
    1e0a:	00 0c       	add	r0, r0
    1e0c:	99 0b       	sbc	r25, r25
	}
	return result;
}

static inline uint16_t getTotalLen(int8_t begin, int8_t end){
	uint16_t result = 0;
    1e0e:	40 e0       	ldi	r20, 0x00	; 0
    1e10:	50 e0       	ldi	r21, 0x00	; 0
    1e12:	16 c0       	rjmp	.+44     	; 0x1e40 <setMultiregister+0x13c>
	if ((begin>-1)&&(end>=begin)){
		for (int i = begin;i<end+1;i++){
			result+=regSet[i].len;
    1e14:	fc 01       	movw	r30, r24
    1e16:	ee 0f       	add	r30, r30
    1e18:	ff 1f       	adc	r31, r31
    1e1a:	e8 0f       	add	r30, r24
    1e1c:	f9 1f       	adc	r31, r25
    1e1e:	eb 5f       	subi	r30, 0xFB	; 251
    1e20:	fb 49       	sbci	r31, 0x9B	; 155
    1e22:	60 81       	ld	r22, Z
    1e24:	62 95       	swap	r22
    1e26:	6f 70       	andi	r22, 0x0F	; 15
    1e28:	71 81       	ldd	r23, Z+1	; 0x01
    1e2a:	e7 2f       	mov	r30, r23
    1e2c:	e2 95       	swap	r30
    1e2e:	e0 7f       	andi	r30, 0xF0	; 240
    1e30:	2e 2f       	mov	r18, r30
    1e32:	26 2b       	or	r18, r22
    1e34:	74 fb       	bst	r23, 4
    1e36:	33 27       	eor	r19, r19
    1e38:	30 f9       	bld	r19, 0
    1e3a:	42 0f       	add	r20, r18
    1e3c:	53 1f       	adc	r21, r19
}

static inline uint16_t getTotalLen(int8_t begin, int8_t end){
	uint16_t result = 0;
	if ((begin>-1)&&(end>=begin)){
		for (int i = begin;i<end+1;i++){
    1e3e:	01 96       	adiw	r24, 0x01	; 1
    1e40:	2a 2f       	mov	r18, r26
    1e42:	0a 2e       	mov	r0, r26
    1e44:	00 0c       	add	r0, r0
    1e46:	33 0b       	sbc	r19, r19
    1e48:	2f 5f       	subi	r18, 0xFF	; 255
    1e4a:	3f 4f       	sbci	r19, 0xFF	; 255
    1e4c:	82 17       	cp	r24, r18
    1e4e:	93 07       	cpc	r25, r19
    1e50:	0c f3       	brlt	.-62     	; 0x1e14 <setMultiregister+0x110>
    1e52:	05 c0       	rjmp	.+10     	; 0x1e5e <setMultiregister+0x15a>
	}
	return result;
}

static inline uint16_t getTotalLen(int8_t begin, int8_t end){
	uint16_t result = 0;
    1e54:	40 e0       	ldi	r20, 0x00	; 0
    1e56:	50 e0       	ldi	r21, 0x00	; 0
    1e58:	02 c0       	rjmp	.+4      	; 0x1e5e <setMultiregister+0x15a>
    1e5a:	40 e0       	ldi	r20, 0x00	; 0
    1e5c:	50 e0       	ldi	r21, 0x00	; 0
		/*volatile int8_t*/ end = searchEnd(begin, inputLen);
		
		if ((begin != -1)&&(end>=begin)){
			uint8_t buffer[MAX_SIZE_FRAME] = {0};//Zwischenspeicherbuffer
			uint16_t positionPtr = 0;//der Zeiger zur nächsten freien Position, die Länge der nutzbaren Bytes
			lenTemp = getTotalLen(begin,end);
    1e5e:	40 93 dd 2b 	sts	0x2BDD, r20	; 0x802bdd <lenTemp>
    1e62:	50 93 de 2b 	sts	0x2BDE, r21	; 0x802bde <lenTemp+0x1>
			//Anzahl der Protocol im abhängig von Nutzdaten (erwartet Nutzdaten = 247)
			
			/*uint8_t*/ processTime = (lenTemp/(uint16_t)PAYLOAD_PER_FRAME) + ((lenTemp%(uint16_t)PAYLOAD_PER_FRAME)?1:0);
    1e66:	20 91 dd 2b 	lds	r18, 0x2BDD	; 0x802bdd <lenTemp>
    1e6a:	30 91 de 2b 	lds	r19, 0x2BDE	; 0x802bde <lenTemp+0x1>
    1e6e:	36 95       	lsr	r19
    1e70:	27 95       	ror	r18
    1e72:	36 95       	lsr	r19
    1e74:	27 95       	ror	r18
    1e76:	36 95       	lsr	r19
    1e78:	27 95       	ror	r18
    1e7a:	a9 e0       	ldi	r26, 0x09	; 9
    1e7c:	b1 e2       	ldi	r27, 0x21	; 33
    1e7e:	0e 94 9a 10 	call	0x2134	; 0x2134 <__umulhisi3>
    1e82:	ac 01       	movw	r20, r24
    1e84:	56 95       	lsr	r21
    1e86:	47 95       	ror	r20
    1e88:	56 95       	lsr	r21
    1e8a:	47 95       	ror	r20
    1e8c:	e0 91 dd 2b 	lds	r30, 0x2BDD	; 0x802bdd <lenTemp>
    1e90:	f0 91 de 2b 	lds	r31, 0x2BDE	; 0x802bde <lenTemp+0x1>
    1e94:	9f 01       	movw	r18, r30
    1e96:	36 95       	lsr	r19
    1e98:	27 95       	ror	r18
    1e9a:	36 95       	lsr	r19
    1e9c:	27 95       	ror	r18
    1e9e:	36 95       	lsr	r19
    1ea0:	27 95       	ror	r18
    1ea2:	0e 94 9a 10 	call	0x2134	; 0x2134 <__umulhisi3>
    1ea6:	96 95       	lsr	r25
    1ea8:	87 95       	ror	r24
    1eaa:	96 95       	lsr	r25
    1eac:	87 95       	ror	r24
    1eae:	68 ef       	ldi	r22, 0xF8	; 248
    1eb0:	68 9f       	mul	r22, r24
    1eb2:	90 01       	movw	r18, r0
    1eb4:	69 9f       	mul	r22, r25
    1eb6:	30 0d       	add	r19, r0
    1eb8:	11 24       	eor	r1, r1
    1eba:	e2 17       	cp	r30, r18
    1ebc:	f3 07       	cpc	r31, r19
    1ebe:	11 f0       	breq	.+4      	; 0x1ec4 <setMultiregister+0x1c0>
    1ec0:	81 e0       	ldi	r24, 0x01	; 1
    1ec2:	01 c0       	rjmp	.+2      	; 0x1ec6 <setMultiregister+0x1c2>
    1ec4:	80 e0       	ldi	r24, 0x00	; 0
    1ec6:	48 0f       	add	r20, r24
    1ec8:	40 93 dc 2b 	sts	0x2BDC, r20	; 0x802bdc <processTime>
			uint8_t temp = 0;
			for (volatile uint8_t i = 0; i<processTime; i++){
    1ecc:	c0 56       	subi	r28, 0x60	; 96
    1ece:	de 4f       	sbci	r29, 0xFE	; 254
    1ed0:	18 82       	st	Y, r1
    1ed2:	c0 5a       	subi	r28, 0xA0	; 160
    1ed4:	d1 40       	sbci	r29, 0x01	; 1
volatile uint16_t lenTemp=0;
volatile uint8_t processTime = 0;

uint8_t setMultiregister(uint8_t add, uint16_t reg, usvMonitorHandler_t* dev_p, uint8_t* input_p, uint16_t inputLen){
	//TODO zu testen
	uint8_t result = NO_ERROR;
    1ed6:	f1 2c       	mov	r15, r1
			lenTemp = getTotalLen(begin,end);
			//Anzahl der Protocol im abhängig von Nutzdaten (erwartet Nutzdaten = 247)
			
			/*uint8_t*/ processTime = (lenTemp/(uint16_t)PAYLOAD_PER_FRAME) + ((lenTemp%(uint16_t)PAYLOAD_PER_FRAME)?1:0);
			uint8_t temp = 0;
			for (volatile uint8_t i = 0; i<processTime; i++){
    1ed8:	da c0       	rjmp	.+436    	; 0x208e <setMultiregister+0x38a>
				positionPtr = 0;
				//Header im Gesamtarray kopieren
				begin = begin + ((int8_t)i)*payload;
    1eda:	c0 56       	subi	r28, 0x60	; 96
    1edc:	de 4f       	sbci	r29, 0xFE	; 254
    1ede:	28 81       	ld	r18, Y
    1ee0:	c0 5a       	subi	r28, 0xA0	; 160
    1ee2:	d1 40       	sbci	r29, 0x01	; 1
    1ee4:	90 91 bb 2b 	lds	r25, 0x2BBB	; 0x802bbb <payload>
    1ee8:	80 91 e0 2b 	lds	r24, 0x2BE0	; 0x802be0 <begin>
    1eec:	29 9f       	mul	r18, r25
    1eee:	80 0d       	add	r24, r0
    1ef0:	11 24       	eor	r1, r1
    1ef2:	80 93 e0 2b 	sts	0x2BE0, r24	; 0x802be0 <begin>
				uuaslProtocolHeader_t head = protocolHeaderPrint(add,begin,UUASL_W_REQ);
    1ef6:	e0 91 e0 2b 	lds	r30, 0x2BE0	; 0x802be0 <begin>
    1efa:	0e 2e       	mov	r0, r30
    1efc:	00 0c       	add	r0, r0
    1efe:	ff 0b       	sbc	r31, r31
 * \param rwReq 8 für Schreiben- und 4 für Lesenanforderungen
 * 
 * \return uuaslProtocolHeader_t das vollstängie Header des Protokolls
 */
static inline uuaslProtocolHeader_t protocolHeaderPrint(uint16_t add,uint16_t index,uint8_t rwReq){
	uuaslProtocolHeader_t result = {
    1f00:	85 ea       	ldi	r24, 0xA5	; 165
    1f02:	c5 56       	subi	r28, 0x65	; 101
    1f04:	de 4f       	sbci	r29, 0xFE	; 254
    1f06:	88 83       	st	Y, r24
    1f08:	cb 59       	subi	r28, 0x9B	; 155
    1f0a:	d1 40       	sbci	r29, 0x01	; 1
    1f0c:	c4 56       	subi	r28, 0x64	; 100
    1f0e:	de 4f       	sbci	r29, 0xFE	; 254
    1f10:	78 82       	st	Y, r7
    1f12:	cc 59       	subi	r28, 0x9C	; 156
    1f14:	d1 40       	sbci	r29, 0x01	; 1
		.start = 0xA5,
		.slaveAdd = add,
		.rwaBytes.value_bf.slaveRegAddL = GET_SLAVE_ADD_LOW_PART(regSet[index].add),
    1f16:	cf 01       	movw	r24, r30
    1f18:	88 0f       	add	r24, r24
    1f1a:	99 1f       	adc	r25, r25
    1f1c:	e8 0f       	add	r30, r24
    1f1e:	f9 1f       	adc	r31, r25
    1f20:	df 01       	movw	r26, r30
    1f22:	ac 5f       	subi	r26, 0xFC	; 252
    1f24:	bb 49       	sbci	r27, 0x9B	; 155
    1f26:	9c 91       	ld	r25, X
    1f28:	11 96       	adiw	r26, 0x01	; 1
    1f2a:	8c 91       	ld	r24, X
 * \param rwReq 8 für Schreiben- und 4 für Lesenanforderungen
 * 
 * \return uuaslProtocolHeader_t das vollstängie Header des Protokolls
 */
static inline uuaslProtocolHeader_t protocolHeaderPrint(uint16_t add,uint16_t index,uint8_t rwReq){
	uuaslProtocolHeader_t result = {
    1f2c:	c3 56       	subi	r28, 0x63	; 99
    1f2e:	de 4f       	sbci	r29, 0xFE	; 254
    1f30:	98 83       	st	Y, r25
    1f32:	cd 59       	subi	r28, 0x9D	; 157
    1f34:	d1 40       	sbci	r29, 0x01	; 1
    1f36:	8f 70       	andi	r24, 0x0F	; 15
    1f38:	80 68       	ori	r24, 0x80	; 128
    1f3a:	c2 56       	subi	r28, 0x62	; 98
    1f3c:	de 4f       	sbci	r29, 0xFE	; 254
    1f3e:	88 83       	st	Y, r24
    1f40:	ce 59       	subi	r28, 0x9E	; 158
    1f42:	d1 40       	sbci	r29, 0x01	; 1
		.start = 0xA5,
		.slaveAdd = add,
		.rwaBytes.value_bf.slaveRegAddL = GET_SLAVE_ADD_LOW_PART(regSet[index].add),
		.rwaBytes.value_bf.slaveRegAddH = GET_SLAVE_ADD_HIGH_PART(regSet[index].add),
		.rwaBytes.value_bf.rw = rwReq,
		.length = regSet[index].len
    1f44:	eb 5f       	subi	r30, 0xFB	; 251
    1f46:	fb 49       	sbci	r31, 0x9B	; 155
    1f48:	80 81       	ld	r24, Z
    1f4a:	98 2f       	mov	r25, r24
    1f4c:	92 95       	swap	r25
    1f4e:	9f 70       	andi	r25, 0x0F	; 15
    1f50:	81 81       	ldd	r24, Z+1	; 0x01
    1f52:	82 95       	swap	r24
    1f54:	80 7f       	andi	r24, 0xF0	; 240
    1f56:	89 2b       	or	r24, r25
 * \param rwReq 8 für Schreiben- und 4 für Lesenanforderungen
 * 
 * \return uuaslProtocolHeader_t das vollstängie Header des Protokolls
 */
static inline uuaslProtocolHeader_t protocolHeaderPrint(uint16_t add,uint16_t index,uint8_t rwReq){
	uuaslProtocolHeader_t result = {
    1f58:	c1 56       	subi	r28, 0x61	; 97
    1f5a:	de 4f       	sbci	r29, 0xFE	; 254
    1f5c:	88 83       	st	Y, r24
    1f5e:	cf 59       	subi	r28, 0x9F	; 159
    1f60:	d1 40       	sbci	r29, 0x01	; 1
		.rwaBytes.value_bf.slaveRegAddL = GET_SLAVE_ADD_LOW_PART(regSet[index].add),
		.rwaBytes.value_bf.slaveRegAddH = GET_SLAVE_ADD_HIGH_PART(regSet[index].add),
		.rwaBytes.value_bf.rw = rwReq,
		.length = regSet[index].len
	};
	return result;
    1f62:	85 e0       	ldi	r24, 0x05	; 5
    1f64:	fe 01       	movw	r30, r28
    1f66:	e5 56       	subi	r30, 0x65	; 101
    1f68:	fe 4f       	sbci	r31, 0xFE	; 254
    1f6a:	de 01       	movw	r26, r28
    1f6c:	11 96       	adiw	r26, 0x01	; 1
    1f6e:	01 90       	ld	r0, Z+
    1f70:	0d 92       	st	X+, r0
    1f72:	8a 95       	dec	r24
    1f74:	e1 f7       	brne	.-8      	; 0x1f6e <setMultiregister+0x26a>
    1f76:	85 e0       	ldi	r24, 0x05	; 5
    1f78:	fe 01       	movw	r30, r28
    1f7a:	31 96       	adiw	r30, 0x01	; 1
    1f7c:	de 01       	movw	r26, r28
    1f7e:	16 96       	adiw	r26, 0x06	; 6
    1f80:	01 90       	ld	r0, Z+
    1f82:	0d 92       	st	X+, r0
    1f84:	8a 95       	dec	r24
    1f86:	e1 f7       	brne	.-8      	; 0x1f80 <setMultiregister+0x27c>
			uint8_t temp = 0;
			for (volatile uint8_t i = 0; i<processTime; i++){
				positionPtr = 0;
				//Header im Gesamtarray kopieren
				begin = begin + ((int8_t)i)*payload;
				uuaslProtocolHeader_t head = protocolHeaderPrint(add,begin,UUASL_W_REQ);
    1f88:	85 e0       	ldi	r24, 0x05	; 5
    1f8a:	fe 01       	movw	r30, r28
    1f8c:	36 96       	adiw	r30, 0x06	; 6
    1f8e:	de 01       	movw	r26, r28
    1f90:	a5 56       	subi	r26, 0x65	; 101
    1f92:	be 4f       	sbci	r27, 0xFE	; 254
    1f94:	01 90       	ld	r0, Z+
    1f96:	0d 92       	st	X+, r0
    1f98:	8a 95       	dec	r24
    1f9a:	e1 f7       	brne	.-8      	; 0x1f94 <setMultiregister+0x290>
				temp = (inputLen>payload)?payload:inputLen;
    1f9c:	80 91 bb 2b 	lds	r24, 0x2BBB	; 0x802bbb <payload>
    1fa0:	90 e0       	ldi	r25, 0x00	; 0
    1fa2:	80 17       	cp	r24, r16
    1fa4:	91 07       	cpc	r25, r17
    1fa6:	10 f0       	brcs	.+4      	; 0x1fac <setMultiregister+0x2a8>
    1fa8:	60 2f       	mov	r22, r16
    1faa:	02 c0       	rjmp	.+4      	; 0x1fb0 <setMultiregister+0x2ac>
    1fac:	60 91 bb 2b 	lds	r22, 0x2BBB	; 0x802bbb <payload>
				head.length = temp+7;
    1fb0:	87 e0       	ldi	r24, 0x07	; 7
    1fb2:	86 0f       	add	r24, r22
    1fb4:	c1 56       	subi	r28, 0x61	; 97
    1fb6:	de 4f       	sbci	r29, 0xFE	; 254
    1fb8:	88 83       	st	Y, r24
    1fba:	cf 59       	subi	r28, 0x9F	; 159
    1fbc:	d1 40       	sbci	r29, 0x01	; 1
				positionPtr+= sizeof(head)/sizeof(uint8_t);
				memcpy((&buffer[0]),(uint8_t*)&head,positionPtr);
    1fbe:	85 e0       	ldi	r24, 0x05	; 5
    1fc0:	fe 01       	movw	r30, r28
    1fc2:	e5 56       	subi	r30, 0x65	; 101
    1fc4:	fe 4f       	sbci	r31, 0xFE	; 254
    1fc6:	de 01       	movw	r26, r28
    1fc8:	1b 96       	adiw	r26, 0x0b	; 11
    1fca:	01 90       	ld	r0, Z+
    1fcc:	0d 92       	st	X+, r0
    1fce:	8a 95       	dec	r24
    1fd0:	e1 f7       	brne	.-8      	; 0x1fca <setMultiregister+0x2c6>
				
				//TODO Inhalt im Gesamtarray kopieren
				memcpy((&buffer[positionPtr]),&(input_p[i*payload]),temp);
    1fd2:	e6 2e       	mov	r14, r22
    1fd4:	f1 2c       	mov	r15, r1
    1fd6:	c0 56       	subi	r28, 0x60	; 96
    1fd8:	de 4f       	sbci	r29, 0xFE	; 254
    1fda:	98 81       	ld	r25, Y
    1fdc:	c0 5a       	subi	r28, 0xA0	; 160
    1fde:	d1 40       	sbci	r29, 0x01	; 1
    1fe0:	80 91 bb 2b 	lds	r24, 0x2BBB	; 0x802bbb <payload>
    1fe4:	b5 01       	movw	r22, r10
    1fe6:	98 9f       	mul	r25, r24
    1fe8:	60 0d       	add	r22, r0
    1fea:	71 1d       	adc	r23, r1
    1fec:	11 24       	eor	r1, r1
    1fee:	a7 01       	movw	r20, r14
    1ff0:	ce 01       	movw	r24, r28
    1ff2:	40 96       	adiw	r24, 0x10	; 16
    1ff4:	0e 94 df 11 	call	0x23be	; 0x23be <memcpy>
				positionPtr+=temp;
    1ff8:	47 01       	movw	r8, r14
    1ffa:	35 e0       	ldi	r19, 0x05	; 5
    1ffc:	83 0e       	add	r8, r19
    1ffe:	91 1c       	adc	r9, r1
				
				//Tail im Gesamtarray kopieren
				uint8_t crc8 = crc8Checksum(&(input_p[i*payload]),temp,dev_p->crc8Polynom);
    2000:	d6 01       	movw	r26, r12
    2002:	17 96       	adiw	r26, 0x07	; 7
    2004:	4c 91       	ld	r20, X
    2006:	c0 56       	subi	r28, 0x60	; 96
    2008:	de 4f       	sbci	r29, 0xFE	; 254
    200a:	98 81       	ld	r25, Y
    200c:	c0 5a       	subi	r28, 0xA0	; 160
    200e:	d1 40       	sbci	r29, 0x01	; 1
    2010:	80 91 bb 2b 	lds	r24, 0x2BBB	; 0x802bbb <payload>
    2014:	b7 01       	movw	r22, r14
    2016:	f5 01       	movw	r30, r10
    2018:	98 9f       	mul	r25, r24
    201a:	e0 0d       	add	r30, r0
    201c:	f1 1d       	adc	r31, r1
    201e:	11 24       	eor	r1, r1
    2020:	cf 01       	movw	r24, r30
    2022:	0e 94 49 0c 	call	0x1892	; 0x1892 <crc8Checksum>
				uuaslProtocolTail_t tail = writeProtocolTailPrint(crc8);
				memcpy((&buffer[positionPtr]),(uint8_t*)&tail,2);//magic number: Länge des Endteils/Tails in Byte
    2026:	eb e0       	ldi	r30, 0x0B	; 11
    2028:	f0 e0       	ldi	r31, 0x00	; 0
    202a:	ec 0f       	add	r30, r28
    202c:	fd 1f       	adc	r31, r29
    202e:	e8 0d       	add	r30, r8
    2030:	f9 1d       	adc	r31, r9
    2032:	80 83       	st	Z, r24
    2034:	86 ea       	ldi	r24, 0xA6	; 166
    2036:	81 83       	std	Z+1, r24	; 0x01
				positionPtr += sizeof(tail)/sizeof(uint8_t);
    2038:	b7 01       	movw	r22, r14
    203a:	69 5f       	subi	r22, 0xF9	; 249
    203c:	7f 4f       	sbci	r23, 0xFF	; 255
				
				//Senden der Daten
				result = (*(dev_p->transmitFunc_p))(buffer,positionPtr);
    203e:	d6 01       	movw	r26, r12
    2040:	12 96       	adiw	r26, 0x02	; 2
    2042:	ed 91       	ld	r30, X+
    2044:	fc 91       	ld	r31, X
    2046:	13 97       	sbiw	r26, 0x03	; 3
    2048:	ce 01       	movw	r24, r28
    204a:	0b 96       	adiw	r24, 0x0b	; 11
    204c:	09 95       	icall
    204e:	f8 2e       	mov	r15, r24
#if WAIT_FUNCTION_ACTIVE
				(*(dev_p->waitFunc_p))(FACTOR_TO_MICROSEC*CHARS_PER_FRAME*positionPtr*3/BAUDRATE_BAUD/2);//warten
#endif
				positionPtr = 1;//hier dient als die zu empfangenen Daten
				(*(dev_p->receiveFunc_p))(buffer, positionPtr);
    2050:	d6 01       	movw	r26, r12
    2052:	ed 91       	ld	r30, X+
    2054:	fc 91       	ld	r31, X
    2056:	61 e0       	ldi	r22, 0x01	; 1
    2058:	70 e0       	ldi	r23, 0x00	; 0
    205a:	ce 01       	movw	r24, r28
    205c:	0b 96       	adiw	r24, 0x0b	; 11
    205e:	09 95       	icall
#if WAIT_FUNCTION_ACTIVE
				(*(dev_p->waitFunc_p))(FACTOR_TO_MICROSEC*CHARS_PER_FRAME*positionPtr*3/BAUDRATE_BAUD/2);//warten
#endif
				if (buffer[0]!=0xA1){
    2060:	8b 85       	ldd	r24, Y+11	; 0x0b
    2062:	81 3a       	cpi	r24, 0xA1	; 161
    2064:	29 f0       	breq	.+10     	; 0x2070 <setMultiregister+0x36c>
					result = PROCESS_FAIL;
    2066:	0f 2e       	mov	r0, r31
    2068:	f5 e0       	ldi	r31, 0x05	; 5
    206a:	ff 2e       	mov	r15, r31
    206c:	f0 2d       	mov	r31, r0
    206e:	27 c0       	rjmp	.+78     	; 0x20be <setMultiregister+0x3ba>
					break;
				}
				//Immer am Ende der Schleife
				inputLen -= payload;
    2070:	80 91 bb 2b 	lds	r24, 0x2BBB	; 0x802bbb <payload>
    2074:	08 1b       	sub	r16, r24
    2076:	11 09       	sbc	r17, r1
			lenTemp = getTotalLen(begin,end);
			//Anzahl der Protocol im abhängig von Nutzdaten (erwartet Nutzdaten = 247)
			
			/*uint8_t*/ processTime = (lenTemp/(uint16_t)PAYLOAD_PER_FRAME) + ((lenTemp%(uint16_t)PAYLOAD_PER_FRAME)?1:0);
			uint8_t temp = 0;
			for (volatile uint8_t i = 0; i<processTime; i++){
    2078:	c0 56       	subi	r28, 0x60	; 96
    207a:	de 4f       	sbci	r29, 0xFE	; 254
    207c:	88 81       	ld	r24, Y
    207e:	c0 5a       	subi	r28, 0xA0	; 160
    2080:	d1 40       	sbci	r29, 0x01	; 1
    2082:	8f 5f       	subi	r24, 0xFF	; 255
    2084:	c0 56       	subi	r28, 0x60	; 96
    2086:	de 4f       	sbci	r29, 0xFE	; 254
    2088:	88 83       	st	Y, r24
    208a:	c0 5a       	subi	r28, 0xA0	; 160
    208c:	d1 40       	sbci	r29, 0x01	; 1
    208e:	c0 56       	subi	r28, 0x60	; 96
    2090:	de 4f       	sbci	r29, 0xFE	; 254
    2092:	98 81       	ld	r25, Y
    2094:	c0 5a       	subi	r28, 0xA0	; 160
    2096:	d1 40       	sbci	r29, 0x01	; 1
    2098:	80 91 dc 2b 	lds	r24, 0x2BDC	; 0x802bdc <processTime>
    209c:	98 17       	cp	r25, r24
    209e:	08 f4       	brcc	.+2      	; 0x20a2 <setMultiregister+0x39e>
    20a0:	1c cf       	rjmp	.-456    	; 0x1eda <setMultiregister+0x1d6>
    20a2:	0d c0       	rjmp	.+26     	; 0x20be <setMultiregister+0x3ba>

uint8_t setMultiregister(uint8_t add, uint16_t reg, usvMonitorHandler_t* dev_p, uint8_t* input_p, uint16_t inputLen){
	//TODO zu testen
	uint8_t result = NO_ERROR;
	if((dev_p==NULL)||(input_p==NULL)){
		result = NULL_POINTER;
    20a4:	ff 24       	eor	r15, r15
    20a6:	f3 94       	inc	r15
    20a8:	0a c0       	rjmp	.+20     	; 0x20be <setMultiregister+0x3ba>
    20aa:	ff 24       	eor	r15, r15
    20ac:	f3 94       	inc	r15
    20ae:	07 c0       	rjmp	.+14     	; 0x20be <setMultiregister+0x3ba>
				}
				//Immer am Ende der Schleife
				inputLen -= payload;
			}
		} else{
			result = DATA_INVALID;
    20b0:	68 94       	set
    20b2:	ff 24       	eor	r15, r15
    20b4:	f2 f8       	bld	r15, 2
    20b6:	03 c0       	rjmp	.+6      	; 0x20be <setMultiregister+0x3ba>
    20b8:	68 94       	set
    20ba:	ff 24       	eor	r15, r15
    20bc:	f2 f8       	bld	r15, 2
		}
	}
	return result;
}
    20be:	8f 2d       	mov	r24, r15
    20c0:	c0 56       	subi	r28, 0x60	; 96
    20c2:	de 4f       	sbci	r29, 0xFE	; 254
    20c4:	cd bf       	out	0x3d, r28	; 61
    20c6:	de bf       	out	0x3e, r29	; 62
    20c8:	df 91       	pop	r29
    20ca:	cf 91       	pop	r28
    20cc:	1f 91       	pop	r17
    20ce:	0f 91       	pop	r16
    20d0:	ff 90       	pop	r15
    20d2:	ef 90       	pop	r14
    20d4:	df 90       	pop	r13
    20d6:	cf 90       	pop	r12
    20d8:	bf 90       	pop	r11
    20da:	af 90       	pop	r10
    20dc:	9f 90       	pop	r9
    20de:	8f 90       	pop	r8
    20e0:	7f 90       	pop	r7
    20e2:	08 95       	ret

000020e4 <__udivmodsi4>:
    20e4:	a1 e2       	ldi	r26, 0x21	; 33
    20e6:	1a 2e       	mov	r1, r26
    20e8:	aa 1b       	sub	r26, r26
    20ea:	bb 1b       	sub	r27, r27
    20ec:	fd 01       	movw	r30, r26
    20ee:	0d c0       	rjmp	.+26     	; 0x210a <__udivmodsi4_ep>

000020f0 <__udivmodsi4_loop>:
    20f0:	aa 1f       	adc	r26, r26
    20f2:	bb 1f       	adc	r27, r27
    20f4:	ee 1f       	adc	r30, r30
    20f6:	ff 1f       	adc	r31, r31
    20f8:	a2 17       	cp	r26, r18
    20fa:	b3 07       	cpc	r27, r19
    20fc:	e4 07       	cpc	r30, r20
    20fe:	f5 07       	cpc	r31, r21
    2100:	20 f0       	brcs	.+8      	; 0x210a <__udivmodsi4_ep>
    2102:	a2 1b       	sub	r26, r18
    2104:	b3 0b       	sbc	r27, r19
    2106:	e4 0b       	sbc	r30, r20
    2108:	f5 0b       	sbc	r31, r21

0000210a <__udivmodsi4_ep>:
    210a:	66 1f       	adc	r22, r22
    210c:	77 1f       	adc	r23, r23
    210e:	88 1f       	adc	r24, r24
    2110:	99 1f       	adc	r25, r25
    2112:	1a 94       	dec	r1
    2114:	69 f7       	brne	.-38     	; 0x20f0 <__udivmodsi4_loop>
    2116:	60 95       	com	r22
    2118:	70 95       	com	r23
    211a:	80 95       	com	r24
    211c:	90 95       	com	r25
    211e:	9b 01       	movw	r18, r22
    2120:	ac 01       	movw	r20, r24
    2122:	bd 01       	movw	r22, r26
    2124:	cf 01       	movw	r24, r30
    2126:	08 95       	ret

00002128 <__tablejump2__>:
    2128:	ee 0f       	add	r30, r30
    212a:	ff 1f       	adc	r31, r31
    212c:	05 90       	lpm	r0, Z+
    212e:	f4 91       	lpm	r31, Z
    2130:	e0 2d       	mov	r30, r0
    2132:	09 94       	ijmp

00002134 <__umulhisi3>:
    2134:	a2 9f       	mul	r26, r18
    2136:	b0 01       	movw	r22, r0
    2138:	b3 9f       	mul	r27, r19
    213a:	c0 01       	movw	r24, r0
    213c:	a3 9f       	mul	r26, r19
    213e:	70 0d       	add	r23, r0
    2140:	81 1d       	adc	r24, r1
    2142:	11 24       	eor	r1, r1
    2144:	91 1d       	adc	r25, r1
    2146:	b2 9f       	mul	r27, r18
    2148:	70 0d       	add	r23, r0
    214a:	81 1d       	adc	r24, r1
    214c:	11 24       	eor	r1, r1
    214e:	91 1d       	adc	r25, r1
    2150:	08 95       	ret

00002152 <__adddi3_s8>:
    2152:	00 24       	eor	r0, r0
    2154:	a7 fd       	sbrc	r26, 7
    2156:	00 94       	com	r0
    2158:	2a 0f       	add	r18, r26
    215a:	30 1d       	adc	r19, r0
    215c:	40 1d       	adc	r20, r0
    215e:	50 1d       	adc	r21, r0
    2160:	60 1d       	adc	r22, r0
    2162:	70 1d       	adc	r23, r0
    2164:	80 1d       	adc	r24, r0
    2166:	90 1d       	adc	r25, r0
    2168:	08 95       	ret

0000216a <__cmpdi2>:
    216a:	2a 15       	cp	r18, r10
    216c:	3b 05       	cpc	r19, r11
    216e:	4c 05       	cpc	r20, r12
    2170:	5d 05       	cpc	r21, r13
    2172:	6e 05       	cpc	r22, r14
    2174:	7f 05       	cpc	r23, r15
    2176:	80 07       	cpc	r24, r16
    2178:	91 07       	cpc	r25, r17
    217a:	08 95       	ret

0000217c <malloc>:
    217c:	0f 93       	push	r16
    217e:	1f 93       	push	r17
    2180:	cf 93       	push	r28
    2182:	df 93       	push	r29
    2184:	82 30       	cpi	r24, 0x02	; 2
    2186:	91 05       	cpc	r25, r1
    2188:	10 f4       	brcc	.+4      	; 0x218e <malloc+0x12>
    218a:	82 e0       	ldi	r24, 0x02	; 2
    218c:	90 e0       	ldi	r25, 0x00	; 0
    218e:	e0 91 0b 2c 	lds	r30, 0x2C0B	; 0x802c0b <__flp>
    2192:	f0 91 0c 2c 	lds	r31, 0x2C0C	; 0x802c0c <__flp+0x1>
    2196:	20 e0       	ldi	r18, 0x00	; 0
    2198:	30 e0       	ldi	r19, 0x00	; 0
    219a:	a0 e0       	ldi	r26, 0x00	; 0
    219c:	b0 e0       	ldi	r27, 0x00	; 0
    219e:	30 97       	sbiw	r30, 0x00	; 0
    21a0:	19 f1       	breq	.+70     	; 0x21e8 <malloc+0x6c>
    21a2:	40 81       	ld	r20, Z
    21a4:	51 81       	ldd	r21, Z+1	; 0x01
    21a6:	02 81       	ldd	r16, Z+2	; 0x02
    21a8:	13 81       	ldd	r17, Z+3	; 0x03
    21aa:	48 17       	cp	r20, r24
    21ac:	59 07       	cpc	r21, r25
    21ae:	c8 f0       	brcs	.+50     	; 0x21e2 <malloc+0x66>
    21b0:	84 17       	cp	r24, r20
    21b2:	95 07       	cpc	r25, r21
    21b4:	69 f4       	brne	.+26     	; 0x21d0 <malloc+0x54>
    21b6:	10 97       	sbiw	r26, 0x00	; 0
    21b8:	31 f0       	breq	.+12     	; 0x21c6 <malloc+0x4a>
    21ba:	12 96       	adiw	r26, 0x02	; 2
    21bc:	0c 93       	st	X, r16
    21be:	12 97       	sbiw	r26, 0x02	; 2
    21c0:	13 96       	adiw	r26, 0x03	; 3
    21c2:	1c 93       	st	X, r17
    21c4:	27 c0       	rjmp	.+78     	; 0x2214 <malloc+0x98>
    21c6:	00 93 0b 2c 	sts	0x2C0B, r16	; 0x802c0b <__flp>
    21ca:	10 93 0c 2c 	sts	0x2C0C, r17	; 0x802c0c <__flp+0x1>
    21ce:	22 c0       	rjmp	.+68     	; 0x2214 <malloc+0x98>
    21d0:	21 15       	cp	r18, r1
    21d2:	31 05       	cpc	r19, r1
    21d4:	19 f0       	breq	.+6      	; 0x21dc <malloc+0x60>
    21d6:	42 17       	cp	r20, r18
    21d8:	53 07       	cpc	r21, r19
    21da:	18 f4       	brcc	.+6      	; 0x21e2 <malloc+0x66>
    21dc:	9a 01       	movw	r18, r20
    21de:	bd 01       	movw	r22, r26
    21e0:	ef 01       	movw	r28, r30
    21e2:	df 01       	movw	r26, r30
    21e4:	f8 01       	movw	r30, r16
    21e6:	db cf       	rjmp	.-74     	; 0x219e <malloc+0x22>
    21e8:	21 15       	cp	r18, r1
    21ea:	31 05       	cpc	r19, r1
    21ec:	f9 f0       	breq	.+62     	; 0x222c <malloc+0xb0>
    21ee:	28 1b       	sub	r18, r24
    21f0:	39 0b       	sbc	r19, r25
    21f2:	24 30       	cpi	r18, 0x04	; 4
    21f4:	31 05       	cpc	r19, r1
    21f6:	80 f4       	brcc	.+32     	; 0x2218 <malloc+0x9c>
    21f8:	8a 81       	ldd	r24, Y+2	; 0x02
    21fa:	9b 81       	ldd	r25, Y+3	; 0x03
    21fc:	61 15       	cp	r22, r1
    21fe:	71 05       	cpc	r23, r1
    2200:	21 f0       	breq	.+8      	; 0x220a <malloc+0x8e>
    2202:	fb 01       	movw	r30, r22
    2204:	82 83       	std	Z+2, r24	; 0x02
    2206:	93 83       	std	Z+3, r25	; 0x03
    2208:	04 c0       	rjmp	.+8      	; 0x2212 <malloc+0x96>
    220a:	80 93 0b 2c 	sts	0x2C0B, r24	; 0x802c0b <__flp>
    220e:	90 93 0c 2c 	sts	0x2C0C, r25	; 0x802c0c <__flp+0x1>
    2212:	fe 01       	movw	r30, r28
    2214:	32 96       	adiw	r30, 0x02	; 2
    2216:	44 c0       	rjmp	.+136    	; 0x22a0 <malloc+0x124>
    2218:	fe 01       	movw	r30, r28
    221a:	e2 0f       	add	r30, r18
    221c:	f3 1f       	adc	r31, r19
    221e:	81 93       	st	Z+, r24
    2220:	91 93       	st	Z+, r25
    2222:	22 50       	subi	r18, 0x02	; 2
    2224:	31 09       	sbc	r19, r1
    2226:	28 83       	st	Y, r18
    2228:	39 83       	std	Y+1, r19	; 0x01
    222a:	3a c0       	rjmp	.+116    	; 0x22a0 <malloc+0x124>
    222c:	20 91 09 2c 	lds	r18, 0x2C09	; 0x802c09 <__brkval>
    2230:	30 91 0a 2c 	lds	r19, 0x2C0A	; 0x802c0a <__brkval+0x1>
    2234:	23 2b       	or	r18, r19
    2236:	41 f4       	brne	.+16     	; 0x2248 <malloc+0xcc>
    2238:	20 91 02 28 	lds	r18, 0x2802	; 0x802802 <__malloc_heap_start>
    223c:	30 91 03 28 	lds	r19, 0x2803	; 0x802803 <__malloc_heap_start+0x1>
    2240:	20 93 09 2c 	sts	0x2C09, r18	; 0x802c09 <__brkval>
    2244:	30 93 0a 2c 	sts	0x2C0A, r19	; 0x802c0a <__brkval+0x1>
    2248:	20 91 00 28 	lds	r18, 0x2800	; 0x802800 <__DATA_REGION_ORIGIN__>
    224c:	30 91 01 28 	lds	r19, 0x2801	; 0x802801 <__DATA_REGION_ORIGIN__+0x1>
    2250:	21 15       	cp	r18, r1
    2252:	31 05       	cpc	r19, r1
    2254:	41 f4       	brne	.+16     	; 0x2266 <malloc+0xea>
    2256:	2d b7       	in	r18, 0x3d	; 61
    2258:	3e b7       	in	r19, 0x3e	; 62
    225a:	40 91 04 28 	lds	r20, 0x2804	; 0x802804 <__malloc_margin>
    225e:	50 91 05 28 	lds	r21, 0x2805	; 0x802805 <__malloc_margin+0x1>
    2262:	24 1b       	sub	r18, r20
    2264:	35 0b       	sbc	r19, r21
    2266:	e0 91 09 2c 	lds	r30, 0x2C09	; 0x802c09 <__brkval>
    226a:	f0 91 0a 2c 	lds	r31, 0x2C0A	; 0x802c0a <__brkval+0x1>
    226e:	e2 17       	cp	r30, r18
    2270:	f3 07       	cpc	r31, r19
    2272:	a0 f4       	brcc	.+40     	; 0x229c <malloc+0x120>
    2274:	2e 1b       	sub	r18, r30
    2276:	3f 0b       	sbc	r19, r31
    2278:	28 17       	cp	r18, r24
    227a:	39 07       	cpc	r19, r25
    227c:	78 f0       	brcs	.+30     	; 0x229c <malloc+0x120>
    227e:	ac 01       	movw	r20, r24
    2280:	4e 5f       	subi	r20, 0xFE	; 254
    2282:	5f 4f       	sbci	r21, 0xFF	; 255
    2284:	24 17       	cp	r18, r20
    2286:	35 07       	cpc	r19, r21
    2288:	48 f0       	brcs	.+18     	; 0x229c <malloc+0x120>
    228a:	4e 0f       	add	r20, r30
    228c:	5f 1f       	adc	r21, r31
    228e:	40 93 09 2c 	sts	0x2C09, r20	; 0x802c09 <__brkval>
    2292:	50 93 0a 2c 	sts	0x2C0A, r21	; 0x802c0a <__brkval+0x1>
    2296:	81 93       	st	Z+, r24
    2298:	91 93       	st	Z+, r25
    229a:	02 c0       	rjmp	.+4      	; 0x22a0 <malloc+0x124>
    229c:	e0 e0       	ldi	r30, 0x00	; 0
    229e:	f0 e0       	ldi	r31, 0x00	; 0
    22a0:	cf 01       	movw	r24, r30
    22a2:	df 91       	pop	r29
    22a4:	cf 91       	pop	r28
    22a6:	1f 91       	pop	r17
    22a8:	0f 91       	pop	r16
    22aa:	08 95       	ret

000022ac <free>:
    22ac:	cf 93       	push	r28
    22ae:	df 93       	push	r29
    22b0:	00 97       	sbiw	r24, 0x00	; 0
    22b2:	09 f4       	brne	.+2      	; 0x22b6 <free+0xa>
    22b4:	81 c0       	rjmp	.+258    	; 0x23b8 <free+0x10c>
    22b6:	fc 01       	movw	r30, r24
    22b8:	32 97       	sbiw	r30, 0x02	; 2
    22ba:	12 82       	std	Z+2, r1	; 0x02
    22bc:	13 82       	std	Z+3, r1	; 0x03
    22be:	a0 91 0b 2c 	lds	r26, 0x2C0B	; 0x802c0b <__flp>
    22c2:	b0 91 0c 2c 	lds	r27, 0x2C0C	; 0x802c0c <__flp+0x1>
    22c6:	10 97       	sbiw	r26, 0x00	; 0
    22c8:	81 f4       	brne	.+32     	; 0x22ea <free+0x3e>
    22ca:	20 81       	ld	r18, Z
    22cc:	31 81       	ldd	r19, Z+1	; 0x01
    22ce:	82 0f       	add	r24, r18
    22d0:	93 1f       	adc	r25, r19
    22d2:	20 91 09 2c 	lds	r18, 0x2C09	; 0x802c09 <__brkval>
    22d6:	30 91 0a 2c 	lds	r19, 0x2C0A	; 0x802c0a <__brkval+0x1>
    22da:	28 17       	cp	r18, r24
    22dc:	39 07       	cpc	r19, r25
    22de:	51 f5       	brne	.+84     	; 0x2334 <free+0x88>
    22e0:	e0 93 09 2c 	sts	0x2C09, r30	; 0x802c09 <__brkval>
    22e4:	f0 93 0a 2c 	sts	0x2C0A, r31	; 0x802c0a <__brkval+0x1>
    22e8:	67 c0       	rjmp	.+206    	; 0x23b8 <free+0x10c>
    22ea:	ed 01       	movw	r28, r26
    22ec:	20 e0       	ldi	r18, 0x00	; 0
    22ee:	30 e0       	ldi	r19, 0x00	; 0
    22f0:	ce 17       	cp	r28, r30
    22f2:	df 07       	cpc	r29, r31
    22f4:	40 f4       	brcc	.+16     	; 0x2306 <free+0x5a>
    22f6:	4a 81       	ldd	r20, Y+2	; 0x02
    22f8:	5b 81       	ldd	r21, Y+3	; 0x03
    22fa:	9e 01       	movw	r18, r28
    22fc:	41 15       	cp	r20, r1
    22fe:	51 05       	cpc	r21, r1
    2300:	f1 f0       	breq	.+60     	; 0x233e <free+0x92>
    2302:	ea 01       	movw	r28, r20
    2304:	f5 cf       	rjmp	.-22     	; 0x22f0 <free+0x44>
    2306:	c2 83       	std	Z+2, r28	; 0x02
    2308:	d3 83       	std	Z+3, r29	; 0x03
    230a:	40 81       	ld	r20, Z
    230c:	51 81       	ldd	r21, Z+1	; 0x01
    230e:	84 0f       	add	r24, r20
    2310:	95 1f       	adc	r25, r21
    2312:	c8 17       	cp	r28, r24
    2314:	d9 07       	cpc	r29, r25
    2316:	59 f4       	brne	.+22     	; 0x232e <free+0x82>
    2318:	88 81       	ld	r24, Y
    231a:	99 81       	ldd	r25, Y+1	; 0x01
    231c:	84 0f       	add	r24, r20
    231e:	95 1f       	adc	r25, r21
    2320:	02 96       	adiw	r24, 0x02	; 2
    2322:	80 83       	st	Z, r24
    2324:	91 83       	std	Z+1, r25	; 0x01
    2326:	8a 81       	ldd	r24, Y+2	; 0x02
    2328:	9b 81       	ldd	r25, Y+3	; 0x03
    232a:	82 83       	std	Z+2, r24	; 0x02
    232c:	93 83       	std	Z+3, r25	; 0x03
    232e:	21 15       	cp	r18, r1
    2330:	31 05       	cpc	r19, r1
    2332:	29 f4       	brne	.+10     	; 0x233e <free+0x92>
    2334:	e0 93 0b 2c 	sts	0x2C0B, r30	; 0x802c0b <__flp>
    2338:	f0 93 0c 2c 	sts	0x2C0C, r31	; 0x802c0c <__flp+0x1>
    233c:	3d c0       	rjmp	.+122    	; 0x23b8 <free+0x10c>
    233e:	e9 01       	movw	r28, r18
    2340:	ea 83       	std	Y+2, r30	; 0x02
    2342:	fb 83       	std	Y+3, r31	; 0x03
    2344:	49 91       	ld	r20, Y+
    2346:	59 91       	ld	r21, Y+
    2348:	c4 0f       	add	r28, r20
    234a:	d5 1f       	adc	r29, r21
    234c:	ec 17       	cp	r30, r28
    234e:	fd 07       	cpc	r31, r29
    2350:	61 f4       	brne	.+24     	; 0x236a <free+0xbe>
    2352:	80 81       	ld	r24, Z
    2354:	91 81       	ldd	r25, Z+1	; 0x01
    2356:	84 0f       	add	r24, r20
    2358:	95 1f       	adc	r25, r21
    235a:	02 96       	adiw	r24, 0x02	; 2
    235c:	e9 01       	movw	r28, r18
    235e:	88 83       	st	Y, r24
    2360:	99 83       	std	Y+1, r25	; 0x01
    2362:	82 81       	ldd	r24, Z+2	; 0x02
    2364:	93 81       	ldd	r25, Z+3	; 0x03
    2366:	8a 83       	std	Y+2, r24	; 0x02
    2368:	9b 83       	std	Y+3, r25	; 0x03
    236a:	e0 e0       	ldi	r30, 0x00	; 0
    236c:	f0 e0       	ldi	r31, 0x00	; 0
    236e:	12 96       	adiw	r26, 0x02	; 2
    2370:	8d 91       	ld	r24, X+
    2372:	9c 91       	ld	r25, X
    2374:	13 97       	sbiw	r26, 0x03	; 3
    2376:	00 97       	sbiw	r24, 0x00	; 0
    2378:	19 f0       	breq	.+6      	; 0x2380 <free+0xd4>
    237a:	fd 01       	movw	r30, r26
    237c:	dc 01       	movw	r26, r24
    237e:	f7 cf       	rjmp	.-18     	; 0x236e <free+0xc2>
    2380:	8d 91       	ld	r24, X+
    2382:	9c 91       	ld	r25, X
    2384:	11 97       	sbiw	r26, 0x01	; 1
    2386:	9d 01       	movw	r18, r26
    2388:	2e 5f       	subi	r18, 0xFE	; 254
    238a:	3f 4f       	sbci	r19, 0xFF	; 255
    238c:	82 0f       	add	r24, r18
    238e:	93 1f       	adc	r25, r19
    2390:	20 91 09 2c 	lds	r18, 0x2C09	; 0x802c09 <__brkval>
    2394:	30 91 0a 2c 	lds	r19, 0x2C0A	; 0x802c0a <__brkval+0x1>
    2398:	28 17       	cp	r18, r24
    239a:	39 07       	cpc	r19, r25
    239c:	69 f4       	brne	.+26     	; 0x23b8 <free+0x10c>
    239e:	30 97       	sbiw	r30, 0x00	; 0
    23a0:	29 f4       	brne	.+10     	; 0x23ac <free+0x100>
    23a2:	10 92 0b 2c 	sts	0x2C0B, r1	; 0x802c0b <__flp>
    23a6:	10 92 0c 2c 	sts	0x2C0C, r1	; 0x802c0c <__flp+0x1>
    23aa:	02 c0       	rjmp	.+4      	; 0x23b0 <free+0x104>
    23ac:	12 82       	std	Z+2, r1	; 0x02
    23ae:	13 82       	std	Z+3, r1	; 0x03
    23b0:	a0 93 09 2c 	sts	0x2C09, r26	; 0x802c09 <__brkval>
    23b4:	b0 93 0a 2c 	sts	0x2C0A, r27	; 0x802c0a <__brkval+0x1>
    23b8:	df 91       	pop	r29
    23ba:	cf 91       	pop	r28
    23bc:	08 95       	ret

000023be <memcpy>:
    23be:	fb 01       	movw	r30, r22
    23c0:	dc 01       	movw	r26, r24
    23c2:	02 c0       	rjmp	.+4      	; 0x23c8 <memcpy+0xa>
    23c4:	01 90       	ld	r0, Z+
    23c6:	0d 92       	st	X+, r0
    23c8:	41 50       	subi	r20, 0x01	; 1
    23ca:	50 40       	sbci	r21, 0x00	; 0
    23cc:	d8 f7       	brcc	.-10     	; 0x23c4 <memcpy+0x6>
    23ce:	08 95       	ret

000023d0 <_exit>:
    23d0:	f8 94       	cli

000023d2 <__stop_program>:
    23d2:	ff cf       	rjmp	.-2      	; 0x23d2 <__stop_program>
